ccopy_reg
_reconstructor
p1
(cnetworkx.classes.graph
Graph
p2
c__builtin__
object
p3
NtRp4
(dp5
S'node'
p6
(dp7
I0
(dp8
sI1
(dp9
sI2
(dp10
sI3
(dp11
sI4
(dp12
sI5
(dp13
sI6
(dp14
sI7
(dp15
sI8
(dp16
sI9
(dp17
sI10
(dp18
sI11
(dp19
sI12
(dp20
sI13
(dp21
sI14
(dp22
sI15
(dp23
sI16
(dp24
sI17
(dp25
sI18
(dp26
sI19
(dp27
sI20
(dp28
sI21
(dp29
sI22
(dp30
sI23
(dp31
sI24
(dp32
sI25
(dp33
sI26
(dp34
sI27
(dp35
sI28
(dp36
sI29
(dp37
sI30
(dp38
sI31
(dp39
sI32
(dp40
sI33
(dp41
sI34
(dp42
sI35
(dp43
sI36
(dp44
sI37
(dp45
sI38
(dp46
sI39
(dp47
sI40
(dp48
sI41
(dp49
sI42
(dp50
sI43
(dp51
sI44
(dp52
sI45
(dp53
sI46
(dp54
sI47
(dp55
sI48
(dp56
sI49
(dp57
sI50
(dp58
sI51
(dp59
sI52
(dp60
sI53
(dp61
sI54
(dp62
sI55
(dp63
sI56
(dp64
sI57
(dp65
sI58
(dp66
sI59
(dp67
sI60
(dp68
sI61
(dp69
sI62
(dp70
sI63
(dp71
sI64
(dp72
sI65
(dp73
sI66
(dp74
sI67
(dp75
sI68
(dp76
sI69
(dp77
sI70
(dp78
sI71
(dp79
sI72
(dp80
sI73
(dp81
sI74
(dp82
sI75
(dp83
sI76
(dp84
sI77
(dp85
sI78
(dp86
sI79
(dp87
sI80
(dp88
sI81
(dp89
sI82
(dp90
sI83
(dp91
sI84
(dp92
sI85
(dp93
sI86
(dp94
sI87
(dp95
sI88
(dp96
sI89
(dp97
sI90
(dp98
sI91
(dp99
sI92
(dp100
sI93
(dp101
sI94
(dp102
sI95
(dp103
sI96
(dp104
sI97
(dp105
sI98
(dp106
sI99
(dp107
sI100
(dp108
sI101
(dp109
sI102
(dp110
sI103
(dp111
sI104
(dp112
sI105
(dp113
sI106
(dp114
sI107
(dp115
sI108
(dp116
sI109
(dp117
sI110
(dp118
sI111
(dp119
sI112
(dp120
sI113
(dp121
sI114
(dp122
sI115
(dp123
sI116
(dp124
sI117
(dp125
sI118
(dp126
sI119
(dp127
sI120
(dp128
sI121
(dp129
sI122
(dp130
sI123
(dp131
sI124
(dp132
sI125
(dp133
sI126
(dp134
sI127
(dp135
sI128
(dp136
sI129
(dp137
sI130
(dp138
sI131
(dp139
sI132
(dp140
sI133
(dp141
sI134
(dp142
sI135
(dp143
sI136
(dp144
sI137
(dp145
sI138
(dp146
sI139
(dp147
sI140
(dp148
sI141
(dp149
sI142
(dp150
sI143
(dp151
sI144
(dp152
sI145
(dp153
sI146
(dp154
sI147
(dp155
sI148
(dp156
sI149
(dp157
sI150
(dp158
sI151
(dp159
sI152
(dp160
sI153
(dp161
sI154
(dp162
sI155
(dp163
sI156
(dp164
sI157
(dp165
sI158
(dp166
sI159
(dp167
sI160
(dp168
sI161
(dp169
sI162
(dp170
sI163
(dp171
sI164
(dp172
sI165
(dp173
sI166
(dp174
sI167
(dp175
sI168
(dp176
sI169
(dp177
sI170
(dp178
sI171
(dp179
sI172
(dp180
sI173
(dp181
sI174
(dp182
sI175
(dp183
sI176
(dp184
sI177
(dp185
sI178
(dp186
sI179
(dp187
sI180
(dp188
sI181
(dp189
sI182
(dp190
sI183
(dp191
sI184
(dp192
sI185
(dp193
sI186
(dp194
sI187
(dp195
sI188
(dp196
sI189
(dp197
sI190
(dp198
sI191
(dp199
sI192
(dp200
sI193
(dp201
sI194
(dp202
sI195
(dp203
sI196
(dp204
sI197
(dp205
sI198
(dp206
sI199
(dp207
sI200
(dp208
sI201
(dp209
sI202
(dp210
sI203
(dp211
sI204
(dp212
sI205
(dp213
sI206
(dp214
sI207
(dp215
sI208
(dp216
sI209
(dp217
sI210
(dp218
sI211
(dp219
sI212
(dp220
sI213
(dp221
sI214
(dp222
sI215
(dp223
sI216
(dp224
sI217
(dp225
sI218
(dp226
sI219
(dp227
sI220
(dp228
sI221
(dp229
sI222
(dp230
sI223
(dp231
sI224
(dp232
sI225
(dp233
sI226
(dp234
sI227
(dp235
sI228
(dp236
sI229
(dp237
sI230
(dp238
sI231
(dp239
sI232
(dp240
sI233
(dp241
sI234
(dp242
sI235
(dp243
sI236
(dp244
sI237
(dp245
sI238
(dp246
sI239
(dp247
sI240
(dp248
sI241
(dp249
sI242
(dp250
sI243
(dp251
sI244
(dp252
sI245
(dp253
sI246
(dp254
sI247
(dp255
sI248
(dp256
sI249
(dp257
sI250
(dp258
sI251
(dp259
sI252
(dp260
sI253
(dp261
sI254
(dp262
sI255
(dp263
sI256
(dp264
sI257
(dp265
sI258
(dp266
sI259
(dp267
sI260
(dp268
sI261
(dp269
sI262
(dp270
sI263
(dp271
sI264
(dp272
sI265
(dp273
sI266
(dp274
sI267
(dp275
sI268
(dp276
sI269
(dp277
sI270
(dp278
sI271
(dp279
sI272
(dp280
sI273
(dp281
sI274
(dp282
sI275
(dp283
sI276
(dp284
sI277
(dp285
sI278
(dp286
sI279
(dp287
sI280
(dp288
sI281
(dp289
sI282
(dp290
sI283
(dp291
sI284
(dp292
sI285
(dp293
sI286
(dp294
sI287
(dp295
sI288
(dp296
sI289
(dp297
sI290
(dp298
sI291
(dp299
sI292
(dp300
sI293
(dp301
sI294
(dp302
sI295
(dp303
sI296
(dp304
sI297
(dp305
sI298
(dp306
sI299
(dp307
sI300
(dp308
sI301
(dp309
sI302
(dp310
sI303
(dp311
sI304
(dp312
sI305
(dp313
sI306
(dp314
sI307
(dp315
sI308
(dp316
sI309
(dp317
sI310
(dp318
sI311
(dp319
sI312
(dp320
sI313
(dp321
sI314
(dp322
sI315
(dp323
sI316
(dp324
sI317
(dp325
sI318
(dp326
sI319
(dp327
sI320
(dp328
sI321
(dp329
sI322
(dp330
sI323
(dp331
sI324
(dp332
sI325
(dp333
sI326
(dp334
sI327
(dp335
sI328
(dp336
sI329
(dp337
sI330
(dp338
sI331
(dp339
sI332
(dp340
sI333
(dp341
sI334
(dp342
sI335
(dp343
sI336
(dp344
sI337
(dp345
sI338
(dp346
sI339
(dp347
sI340
(dp348
sI341
(dp349
sI342
(dp350
sI343
(dp351
sI344
(dp352
sI345
(dp353
sI346
(dp354
sI347
(dp355
sI348
(dp356
sI349
(dp357
sI350
(dp358
sI351
(dp359
sI352
(dp360
sI353
(dp361
sI354
(dp362
sI355
(dp363
sI356
(dp364
sI357
(dp365
sI358
(dp366
sI359
(dp367
sI360
(dp368
sI361
(dp369
sI362
(dp370
sI363
(dp371
sI364
(dp372
sI365
(dp373
sI366
(dp374
sI367
(dp375
sI368
(dp376
sI369
(dp377
sI370
(dp378
sI371
(dp379
sI372
(dp380
sI373
(dp381
sI374
(dp382
sI375
(dp383
sI376
(dp384
sI377
(dp385
sI378
(dp386
sI379
(dp387
sI380
(dp388
sI381
(dp389
sI382
(dp390
sI383
(dp391
sI384
(dp392
sI385
(dp393
sI386
(dp394
sI387
(dp395
sI388
(dp396
sI389
(dp397
sI390
(dp398
sI391
(dp399
sI392
(dp400
sI393
(dp401
sI394
(dp402
sI395
(dp403
sI396
(dp404
sI397
(dp405
sI398
(dp406
sI399
(dp407
sI400
(dp408
sI401
(dp409
sI402
(dp410
sI403
(dp411
sI404
(dp412
sI405
(dp413
sI406
(dp414
sI407
(dp415
sI408
(dp416
sI409
(dp417
sI410
(dp418
sI411
(dp419
sI412
(dp420
sI413
(dp421
sI414
(dp422
sI415
(dp423
sI416
(dp424
sI417
(dp425
sI418
(dp426
sI419
(dp427
sI420
(dp428
sI421
(dp429
sI422
(dp430
sI423
(dp431
sI424
(dp432
sI425
(dp433
sI426
(dp434
sI427
(dp435
sI428
(dp436
sI429
(dp437
sI430
(dp438
sI431
(dp439
sI432
(dp440
sI433
(dp441
sI434
(dp442
sI435
(dp443
sI436
(dp444
sI437
(dp445
sI438
(dp446
sI439
(dp447
sI440
(dp448
sI441
(dp449
sI442
(dp450
sI443
(dp451
sI444
(dp452
sI445
(dp453
sI446
(dp454
sI447
(dp455
sI448
(dp456
sI449
(dp457
sI450
(dp458
sI451
(dp459
sI452
(dp460
sI453
(dp461
sI454
(dp462
sI455
(dp463
sI456
(dp464
sI457
(dp465
sI458
(dp466
sI459
(dp467
sI460
(dp468
sI461
(dp469
sI462
(dp470
sI463
(dp471
sI464
(dp472
sI465
(dp473
sI466
(dp474
sI467
(dp475
sI468
(dp476
sI469
(dp477
sI470
(dp478
sI471
(dp479
sI472
(dp480
sI473
(dp481
sI474
(dp482
sI475
(dp483
sI476
(dp484
sI477
(dp485
sI478
(dp486
sI479
(dp487
sI480
(dp488
sI481
(dp489
sI482
(dp490
sI483
(dp491
sI484
(dp492
sI485
(dp493
sI486
(dp494
sI487
(dp495
sI488
(dp496
sI489
(dp497
sI490
(dp498
sI491
(dp499
sI492
(dp500
sI493
(dp501
sI494
(dp502
sI495
(dp503
sI496
(dp504
sI497
(dp505
sI498
(dp506
sI499
(dp507
sI500
(dp508
sI501
(dp509
sI502
(dp510
sI503
(dp511
sI504
(dp512
sI505
(dp513
sI506
(dp514
sI507
(dp515
sI508
(dp516
sI509
(dp517
sI510
(dp518
sI511
(dp519
sI512
(dp520
sI513
(dp521
sI514
(dp522
sI515
(dp523
sI516
(dp524
sI517
(dp525
sI518
(dp526
sI519
(dp527
sI520
(dp528
sI521
(dp529
sI522
(dp530
sI523
(dp531
sI524
(dp532
sI525
(dp533
sI526
(dp534
sI527
(dp535
sI528
(dp536
sI529
(dp537
sI530
(dp538
sI531
(dp539
sI532
(dp540
sI533
(dp541
sI534
(dp542
sI535
(dp543
sI536
(dp544
sI537
(dp545
sI538
(dp546
sI539
(dp547
sI540
(dp548
sI541
(dp549
sI542
(dp550
sI543
(dp551
sI544
(dp552
sI545
(dp553
sI546
(dp554
sI547
(dp555
sI548
(dp556
sI549
(dp557
sI550
(dp558
sI551
(dp559
sI552
(dp560
sI553
(dp561
sI554
(dp562
sI555
(dp563
sI556
(dp564
sI557
(dp565
sI558
(dp566
sI559
(dp567
sI560
(dp568
sI561
(dp569
sI562
(dp570
sI563
(dp571
sI564
(dp572
sI565
(dp573
sI566
(dp574
sI567
(dp575
sI568
(dp576
sI569
(dp577
sI570
(dp578
sI571
(dp579
sI572
(dp580
sI573
(dp581
sI574
(dp582
sI575
(dp583
sI576
(dp584
sI577
(dp585
sI578
(dp586
sI579
(dp587
sI580
(dp588
sI581
(dp589
sI582
(dp590
sI583
(dp591
sI584
(dp592
sI585
(dp593
sI586
(dp594
sI587
(dp595
sI588
(dp596
sI589
(dp597
sI590
(dp598
sI591
(dp599
sI592
(dp600
sI593
(dp601
sI594
(dp602
sI595
(dp603
sI596
(dp604
sI597
(dp605
sI598
(dp606
sI599
(dp607
sI600
(dp608
sI601
(dp609
sI602
(dp610
sI603
(dp611
sI604
(dp612
sI605
(dp613
sI606
(dp614
sI607
(dp615
sI608
(dp616
sI609
(dp617
sI610
(dp618
sI611
(dp619
sI612
(dp620
sI613
(dp621
sI614
(dp622
sI615
(dp623
sI616
(dp624
sI617
(dp625
sI618
(dp626
sI619
(dp627
sI620
(dp628
sI621
(dp629
sI622
(dp630
sI623
(dp631
sI624
(dp632
sI625
(dp633
sI626
(dp634
sI627
(dp635
sI628
(dp636
sI629
(dp637
sI630
(dp638
sI631
(dp639
sI632
(dp640
sI633
(dp641
sI634
(dp642
sI635
(dp643
sI636
(dp644
sI637
(dp645
sI638
(dp646
sI639
(dp647
sI640
(dp648
sI641
(dp649
sI642
(dp650
sI643
(dp651
sI644
(dp652
sI645
(dp653
sI646
(dp654
sI647
(dp655
sI648
(dp656
sI649
(dp657
sI650
(dp658
sI651
(dp659
sI652
(dp660
sI653
(dp661
sI654
(dp662
sI655
(dp663
sI656
(dp664
sI657
(dp665
sI658
(dp666
sI659
(dp667
sI660
(dp668
sI661
(dp669
sI662
(dp670
sI663
(dp671
sI664
(dp672
sI665
(dp673
sI666
(dp674
sI667
(dp675
sI668
(dp676
sI669
(dp677
sI670
(dp678
sI671
(dp679
sI672
(dp680
sI673
(dp681
sI674
(dp682
sI675
(dp683
sI676
(dp684
sI677
(dp685
sI678
(dp686
sI679
(dp687
sI680
(dp688
sI681
(dp689
sI682
(dp690
sI683
(dp691
sI684
(dp692
sI685
(dp693
sI686
(dp694
sI687
(dp695
sI688
(dp696
sI689
(dp697
sI690
(dp698
sI691
(dp699
sI692
(dp700
sI693
(dp701
sI694
(dp702
sI695
(dp703
sI696
(dp704
sI697
(dp705
sI698
(dp706
sI699
(dp707
sI700
(dp708
sI701
(dp709
sI702
(dp710
sI703
(dp711
sI704
(dp712
sI705
(dp713
sI706
(dp714
sI707
(dp715
sI708
(dp716
sI709
(dp717
sI710
(dp718
sI711
(dp719
sI712
(dp720
sI713
(dp721
sI714
(dp722
sI715
(dp723
sI716
(dp724
sI717
(dp725
sI718
(dp726
sI719
(dp727
sI720
(dp728
sI721
(dp729
sI722
(dp730
sI723
(dp731
sI724
(dp732
sI725
(dp733
sI726
(dp734
sI727
(dp735
sI728
(dp736
sI729
(dp737
sI730
(dp738
sI731
(dp739
sI732
(dp740
sI733
(dp741
sI734
(dp742
sI735
(dp743
sI736
(dp744
sI737
(dp745
sI738
(dp746
sI739
(dp747
sI740
(dp748
sI741
(dp749
sI742
(dp750
sI743
(dp751
sI744
(dp752
sI745
(dp753
sI746
(dp754
sI747
(dp755
sI748
(dp756
sI749
(dp757
sI750
(dp758
sI751
(dp759
sI752
(dp760
sI753
(dp761
sI754
(dp762
sI755
(dp763
sI756
(dp764
sI757
(dp765
sI758
(dp766
sI759
(dp767
sI760
(dp768
sI761
(dp769
sI762
(dp770
sI763
(dp771
sI764
(dp772
sI765
(dp773
sI766
(dp774
sI767
(dp775
sI768
(dp776
sI769
(dp777
sI770
(dp778
sI771
(dp779
sI772
(dp780
sI773
(dp781
sI774
(dp782
sI775
(dp783
sI776
(dp784
sI777
(dp785
sI778
(dp786
sI779
(dp787
sI780
(dp788
sI781
(dp789
sI782
(dp790
sI783
(dp791
sI784
(dp792
sI785
(dp793
sI786
(dp794
sI787
(dp795
sI788
(dp796
sI789
(dp797
sI790
(dp798
sI791
(dp799
sI792
(dp800
sI793
(dp801
sI794
(dp802
sI795
(dp803
sI796
(dp804
sI797
(dp805
sI798
(dp806
sI799
(dp807
sI800
(dp808
sI801
(dp809
sI802
(dp810
sI803
(dp811
sI804
(dp812
sI805
(dp813
sI806
(dp814
sI807
(dp815
sI808
(dp816
sI809
(dp817
sI810
(dp818
sI811
(dp819
sI812
(dp820
sI813
(dp821
sI814
(dp822
sI815
(dp823
sI816
(dp824
sI817
(dp825
sI818
(dp826
sI819
(dp827
sI820
(dp828
sI821
(dp829
sI822
(dp830
sI823
(dp831
sI824
(dp832
sI825
(dp833
sI826
(dp834
sI827
(dp835
sI828
(dp836
sI829
(dp837
sI830
(dp838
sI831
(dp839
sI832
(dp840
sI833
(dp841
sI834
(dp842
sI835
(dp843
sI836
(dp844
sI837
(dp845
sI838
(dp846
sI839
(dp847
sI840
(dp848
sI841
(dp849
sI842
(dp850
sI843
(dp851
sI844
(dp852
sI845
(dp853
sI846
(dp854
sI847
(dp855
sI848
(dp856
sI849
(dp857
sI850
(dp858
sI851
(dp859
sI852
(dp860
sI853
(dp861
sI854
(dp862
sI855
(dp863
sI856
(dp864
sI857
(dp865
sI858
(dp866
sI859
(dp867
sI860
(dp868
sI861
(dp869
sI862
(dp870
sI863
(dp871
sI864
(dp872
sI865
(dp873
sI866
(dp874
sI867
(dp875
sI868
(dp876
sI869
(dp877
sI870
(dp878
sI871
(dp879
sI872
(dp880
sI873
(dp881
sI874
(dp882
sI875
(dp883
sI876
(dp884
sI877
(dp885
sI878
(dp886
sI879
(dp887
sI880
(dp888
sI881
(dp889
sI882
(dp890
sI883
(dp891
sI884
(dp892
sI885
(dp893
sI886
(dp894
sI887
(dp895
sI888
(dp896
sI889
(dp897
sI890
(dp898
sI891
(dp899
sI892
(dp900
sI893
(dp901
sI894
(dp902
sI895
(dp903
sI896
(dp904
sI897
(dp905
sI898
(dp906
sI899
(dp907
sI900
(dp908
sI901
(dp909
sI902
(dp910
sI903
(dp911
sI904
(dp912
sI905
(dp913
sI906
(dp914
sI907
(dp915
sI908
(dp916
sI909
(dp917
sI910
(dp918
sI911
(dp919
sI912
(dp920
sI913
(dp921
sI914
(dp922
sI915
(dp923
sI916
(dp924
sI917
(dp925
sI918
(dp926
sI919
(dp927
sI920
(dp928
sI921
(dp929
sI922
(dp930
sI923
(dp931
sI924
(dp932
sI925
(dp933
sI926
(dp934
sI927
(dp935
sI928
(dp936
sI929
(dp937
sI930
(dp938
sI931
(dp939
sI932
(dp940
sI933
(dp941
sI934
(dp942
sI935
(dp943
sI936
(dp944
sI937
(dp945
sI938
(dp946
sI939
(dp947
sI940
(dp948
sI941
(dp949
sI942
(dp950
sI943
(dp951
sI944
(dp952
sI945
(dp953
sI946
(dp954
sI947
(dp955
sI948
(dp956
sI949
(dp957
sI950
(dp958
sI951
(dp959
sI952
(dp960
sI953
(dp961
sI954
(dp962
sI955
(dp963
sI956
(dp964
sI957
(dp965
sI958
(dp966
sI959
(dp967
sI960
(dp968
sI961
(dp969
sI962
(dp970
sI963
(dp971
sI964
(dp972
sI965
(dp973
sI966
(dp974
sI967
(dp975
sI968
(dp976
sI969
(dp977
sI970
(dp978
sI971
(dp979
sI972
(dp980
sI973
(dp981
sI974
(dp982
sI975
(dp983
sI976
(dp984
sI977
(dp985
sI978
(dp986
sI979
(dp987
sI980
(dp988
sI981
(dp989
sI982
(dp990
sI983
(dp991
sI984
(dp992
sI985
(dp993
sI986
(dp994
sI987
(dp995
sI988
(dp996
sI989
(dp997
sI990
(dp998
sI991
(dp999
sI992
(dp1000
sI993
(dp1001
sI994
(dp1002
sI995
(dp1003
sI996
(dp1004
sI997
(dp1005
sI998
(dp1006
sI999
(dp1007
sI1000
(dp1008
sI1001
(dp1009
sI1002
(dp1010
sI1003
(dp1011
sI1004
(dp1012
sI1005
(dp1013
sI1006
(dp1014
sI1007
(dp1015
sI1008
(dp1016
sI1009
(dp1017
sI1010
(dp1018
sI1011
(dp1019
sI1012
(dp1020
sI1013
(dp1021
sI1014
(dp1022
sI1015
(dp1023
sI1016
(dp1024
sI1017
(dp1025
sI1018
(dp1026
sI1019
(dp1027
sI1020
(dp1028
sI1021
(dp1029
sI1022
(dp1030
sI1023
(dp1031
sI1024
(dp1032
sI1025
(dp1033
sI1026
(dp1034
sI1027
(dp1035
sI1028
(dp1036
sI1029
(dp1037
sI1030
(dp1038
sI1031
(dp1039
sI1032
(dp1040
sI1033
(dp1041
sI1034
(dp1042
sI1035
(dp1043
sI1036
(dp1044
sI1037
(dp1045
sI1038
(dp1046
sI1039
(dp1047
sI1040
(dp1048
sI1041
(dp1049
sI1042
(dp1050
sI1043
(dp1051
sI1044
(dp1052
sI1045
(dp1053
sI1046
(dp1054
sI1047
(dp1055
sI1048
(dp1056
sI1049
(dp1057
sI1050
(dp1058
sI1051
(dp1059
sI1052
(dp1060
sI1053
(dp1061
sI1054
(dp1062
sI1055
(dp1063
sI1056
(dp1064
sI1057
(dp1065
sI1058
(dp1066
sI1059
(dp1067
sI1060
(dp1068
sI1061
(dp1069
sI1062
(dp1070
sI1063
(dp1071
sI1064
(dp1072
sI1065
(dp1073
sI1066
(dp1074
sI1067
(dp1075
sI1068
(dp1076
sI1069
(dp1077
sI1070
(dp1078
sI1071
(dp1079
sI1072
(dp1080
sI1073
(dp1081
sI1074
(dp1082
sI1075
(dp1083
sI1076
(dp1084
sI1077
(dp1085
sI1078
(dp1086
sI1079
(dp1087
sI1080
(dp1088
sI1081
(dp1089
sI1082
(dp1090
sI1083
(dp1091
sI1084
(dp1092
sI1085
(dp1093
sI1086
(dp1094
sI1087
(dp1095
sI1088
(dp1096
sI1089
(dp1097
sI1090
(dp1098
sI1091
(dp1099
sI1092
(dp1100
sI1093
(dp1101
sI1094
(dp1102
sI1095
(dp1103
sI1096
(dp1104
sI1097
(dp1105
sI1098
(dp1106
sI1099
(dp1107
sI1100
(dp1108
sI1101
(dp1109
sI1102
(dp1110
sI1103
(dp1111
sI1104
(dp1112
sI1105
(dp1113
sI1106
(dp1114
sI1107
(dp1115
sI1108
(dp1116
sI1109
(dp1117
sI1110
(dp1118
sI1111
(dp1119
sI1112
(dp1120
sI1113
(dp1121
sI1114
(dp1122
sI1115
(dp1123
sI1116
(dp1124
sI1117
(dp1125
sI1118
(dp1126
sI1119
(dp1127
sI1120
(dp1128
sI1121
(dp1129
sI1122
(dp1130
sI1123
(dp1131
sI1124
(dp1132
sI1125
(dp1133
sI1126
(dp1134
sI1127
(dp1135
sI1128
(dp1136
sI1129
(dp1137
sI1130
(dp1138
sI1131
(dp1139
sI1132
(dp1140
sI1133
(dp1141
sI1134
(dp1142
sI1135
(dp1143
sI1136
(dp1144
sI1137
(dp1145
sI1138
(dp1146
sI1139
(dp1147
sI1140
(dp1148
sI1141
(dp1149
sI1142
(dp1150
sI1143
(dp1151
sI1144
(dp1152
sI1145
(dp1153
sI1146
(dp1154
sI1147
(dp1155
sI1148
(dp1156
sI1149
(dp1157
sI1150
(dp1158
sI1151
(dp1159
ssS'graph'
p1160
(dp1161
sS'edge'
p1162
(dp1163
I0
(dp1164
I67
(dp1165
ssI1
(dp1166
I83
(dp1167
sI67
(dp1168
sI5
(dp1169
ssI2
(dp1170
I258
(dp1171
sI67
(dp1172
sI5
(dp1173
sI386
(dp1174
sI174
(dp1175
sI559
(dp1176
sI370
(dp1177
sI83
(dp1178
ssI3
(dp1179
I83
(dp1180
sI67
(dp1181
ssI4
(dp1182
I83
(dp1183
sI67
(dp1184
ssI5
(dp1185
I1
g1169
sI2
g1173
sI10
(dp1186
sI13
(dp1187
sI14
(dp1188
sI15
(dp1189
sI17
(dp1190
sI19
(dp1191
sI20
(dp1192
sI22
(dp1193
sI23
(dp1194
sI24
(dp1195
sI25
(dp1196
sI26
(dp1197
sI28
(dp1198
sI29
(dp1199
sI30
(dp1200
sI32
(dp1201
sI33
(dp1202
sI35
(dp1203
sI36
(dp1204
sI39
(dp1205
sI40
(dp1206
sI41
(dp1207
sI42
(dp1208
sI45
(dp1209
sI46
(dp1210
sI48
(dp1211
sI49
(dp1212
sI50
(dp1213
sI51
(dp1214
sI53
(dp1215
sI57
(dp1216
sI61
(dp1217
sI62
(dp1218
sI65
(dp1219
sI66
(dp1220
sI67
(dp1221
sI68
(dp1222
sI70
(dp1223
sI72
(dp1224
sI74
(dp1225
sI77
(dp1226
sI80
(dp1227
sI83
(dp1228
sI84
(dp1229
sI85
(dp1230
sI86
(dp1231
sI87
(dp1232
sI88
(dp1233
sI95
(dp1234
sI97
(dp1235
sI98
(dp1236
sI99
(dp1237
sI101
(dp1238
sI103
(dp1239
sI107
(dp1240
sI109
(dp1241
sI117
(dp1242
sI119
(dp1243
sI126
(dp1244
sI127
(dp1245
sI128
(dp1246
sI129
(dp1247
sI130
(dp1248
sI131
(dp1249
sI133
(dp1250
sI135
(dp1251
sI136
(dp1252
sI138
(dp1253
sI143
(dp1254
sI144
(dp1255
sI147
(dp1256
sI150
(dp1257
sI153
(dp1258
sI157
(dp1259
sI158
(dp1260
sI159
(dp1261
sI161
(dp1262
sI164
(dp1263
sI166
(dp1264
sI169
(dp1265
sI171
(dp1266
sI174
(dp1267
sI175
(dp1268
sI176
(dp1269
sI177
(dp1270
sI178
(dp1271
sI183
(dp1272
sI185
(dp1273
sI187
(dp1274
sI188
(dp1275
sI189
(dp1276
sI194
(dp1277
sI196
(dp1278
sI197
(dp1279
sI198
(dp1280
sI199
(dp1281
sI201
(dp1282
sI203
(dp1283
sI207
(dp1284
sI208
(dp1285
sI210
(dp1286
sI212
(dp1287
sI215
(dp1288
sI218
(dp1289
sI223
(dp1290
sI233
(dp1291
sI234
(dp1292
sI235
(dp1293
sI236
(dp1294
sI237
(dp1295
sI238
(dp1296
sI243
(dp1297
sI246
(dp1298
sI249
(dp1299
sI252
(dp1300
sI253
(dp1301
sI256
(dp1302
sI258
(dp1303
sI261
(dp1304
sI262
(dp1305
sI264
(dp1306
sI268
(dp1307
sI269
(dp1308
sI271
(dp1309
sI273
(dp1310
sI274
(dp1311
sI278
(dp1312
sI279
(dp1313
sI280
(dp1314
sI281
(dp1315
sI285
(dp1316
sI287
(dp1317
sI289
(dp1318
sI290
(dp1319
sI294
(dp1320
sI295
(dp1321
sI296
(dp1322
sI297
(dp1323
sI298
(dp1324
sI303
(dp1325
sI305
(dp1326
sI307
(dp1327
sI309
(dp1328
sI310
(dp1329
sI313
(dp1330
sI314
(dp1331
sI316
(dp1332
sI317
(dp1333
sI319
(dp1334
sI321
(dp1335
sI322
(dp1336
sI324
(dp1337
sI325
(dp1338
sI326
(dp1339
sI338
(dp1340
sI339
(dp1341
sI340
(dp1342
sI343
(dp1343
sI344
(dp1344
sI350
(dp1345
sI353
(dp1346
sI356
(dp1347
sI358
(dp1348
sI367
(dp1349
sI370
(dp1350
sI373
(dp1351
sI377
(dp1352
sI378
(dp1353
sI380
(dp1354
sI382
(dp1355
sI386
(dp1356
sI387
(dp1357
sI388
(dp1358
sI392
(dp1359
sI393
(dp1360
sI394
(dp1361
sI395
(dp1362
sI402
(dp1363
sI403
(dp1364
sI406
(dp1365
sI409
(dp1366
sI410
(dp1367
sI412
(dp1368
sI414
(dp1369
sI415
(dp1370
sI419
(dp1371
sI421
(dp1372
sI422
(dp1373
sI423
(dp1374
sI426
(dp1375
sI429
(dp1376
sI430
(dp1377
sI432
(dp1378
sI434
(dp1379
sI440
(dp1380
sI441
(dp1381
sI442
(dp1382
sI443
(dp1383
sI446
(dp1384
sI447
(dp1385
sI448
(dp1386
sI450
(dp1387
sI454
(dp1388
sI458
(dp1389
sI462
(dp1390
sI464
(dp1391
sI466
(dp1392
sI469
(dp1393
sI470
(dp1394
sI473
(dp1395
sI474
(dp1396
sI477
(dp1397
sI478
(dp1398
sI479
(dp1399
sI480
(dp1400
sI481
(dp1401
sI483
(dp1402
sI485
(dp1403
sI487
(dp1404
sI488
(dp1405
sI493
(dp1406
sI494
(dp1407
sI496
(dp1408
sI498
(dp1409
sI500
(dp1410
sI501
(dp1411
sI503
(dp1412
sI504
(dp1413
sI505
(dp1414
sI506
(dp1415
sI507
(dp1416
sI508
(dp1417
sI509
(dp1418
sI510
(dp1419
sI513
(dp1420
sI516
(dp1421
sI518
(dp1422
sI520
(dp1423
sI523
(dp1424
sI524
(dp1425
sI527
(dp1426
sI532
(dp1427
sI533
(dp1428
sI537
(dp1429
sI538
(dp1430
sI539
(dp1431
sI542
(dp1432
sI546
(dp1433
sI549
(dp1434
sI550
(dp1435
sI553
(dp1436
sI554
(dp1437
sI555
(dp1438
sI558
(dp1439
sI559
(dp1440
sI560
(dp1441
sI563
(dp1442
sI566
(dp1443
sI567
(dp1444
sI568
(dp1445
sI570
(dp1446
sI572
(dp1447
sI573
(dp1448
sI575
(dp1449
sI576
(dp1450
sI579
(dp1451
sI580
(dp1452
sI590
(dp1453
sI593
(dp1454
sI594
(dp1455
sI598
(dp1456
sI599
(dp1457
sI601
(dp1458
sI605
(dp1459
sI606
(dp1460
sI608
(dp1461
sI609
(dp1462
sI612
(dp1463
sI614
(dp1464
sI616
(dp1465
sI617
(dp1466
sI620
(dp1467
sI624
(dp1468
sI625
(dp1469
sI627
(dp1470
sI628
(dp1471
sI630
(dp1472
sI631
(dp1473
sI632
(dp1474
sI636
(dp1475
sI637
(dp1476
sI639
(dp1477
sI641
(dp1478
sI642
(dp1479
sI644
(dp1480
sI645
(dp1481
sI647
(dp1482
sI648
(dp1483
sI649
(dp1484
sI651
(dp1485
sI655
(dp1486
sI661
(dp1487
sI663
(dp1488
sI664
(dp1489
sI665
(dp1490
sI666
(dp1491
sI667
(dp1492
sI670
(dp1493
sI671
(dp1494
sI676
(dp1495
sI678
(dp1496
sI680
(dp1497
sI682
(dp1498
sI684
(dp1499
sI688
(dp1500
sI689
(dp1501
sI693
(dp1502
sI694
(dp1503
sI696
(dp1504
sI698
(dp1505
sI699
(dp1506
sI700
(dp1507
sI702
(dp1508
sI703
(dp1509
sI704
(dp1510
sI705
(dp1511
sI707
(dp1512
sI708
(dp1513
sI709
(dp1514
sI713
(dp1515
sI718
(dp1516
sI719
(dp1517
sI720
(dp1518
sI726
(dp1519
sI736
(dp1520
sI737
(dp1521
sI738
(dp1522
sI739
(dp1523
sI743
(dp1524
sI744
(dp1525
sI748
(dp1526
sI749
(dp1527
sI752
(dp1528
sI753
(dp1529
sI754
(dp1530
sI756
(dp1531
sI758
(dp1532
sI759
(dp1533
sI760
(dp1534
sI764
(dp1535
sI765
(dp1536
sI766
(dp1537
sI767
(dp1538
sI769
(dp1539
sI772
(dp1540
sI776
(dp1541
sI781
(dp1542
sI783
(dp1543
sI786
(dp1544
sI787
(dp1545
sI790
(dp1546
sI797
(dp1547
sI798
(dp1548
sI802
(dp1549
sI803
(dp1550
sI804
(dp1551
sI805
(dp1552
sI806
(dp1553
sI807
(dp1554
sI810
(dp1555
sI811
(dp1556
sI814
(dp1557
sI816
(dp1558
sI817
(dp1559
sI818
(dp1560
sI819
(dp1561
sI822
(dp1562
sI826
(dp1563
sI829
(dp1564
sI831
(dp1565
sI835
(dp1566
sI842
(dp1567
sI843
(dp1568
sI846
(dp1569
sI848
(dp1570
sI855
(dp1571
sI856
(dp1572
sI859
(dp1573
sI862
(dp1574
sI863
(dp1575
sI864
(dp1576
sI865
(dp1577
sI866
(dp1578
sI867
(dp1579
sI869
(dp1580
sI871
(dp1581
sI872
(dp1582
sI873
(dp1583
sI875
(dp1584
sI876
(dp1585
sI877
(dp1586
sI878
(dp1587
sI879
(dp1588
sI880
(dp1589
sI881
(dp1590
sI884
(dp1591
sI885
(dp1592
sI886
(dp1593
sI890
(dp1594
sI891
(dp1595
sI894
(dp1596
sI896
(dp1597
sI902
(dp1598
sI904
(dp1599
sI905
(dp1600
sI907
(dp1601
sI912
(dp1602
sI913
(dp1603
sI917
(dp1604
sI920
(dp1605
sI928
(dp1606
sI931
(dp1607
sI934
(dp1608
sI935
(dp1609
sI937
(dp1610
sI940
(dp1611
sI941
(dp1612
sI944
(dp1613
sI949
(dp1614
sI951
(dp1615
sI954
(dp1616
sI957
(dp1617
sI958
(dp1618
sI959
(dp1619
sI960
(dp1620
sI961
(dp1621
sI963
(dp1622
sI966
(dp1623
sI967
(dp1624
sI969
(dp1625
sI973
(dp1626
sI976
(dp1627
sI978
(dp1628
sI984
(dp1629
sI989
(dp1630
sI990
(dp1631
sI993
(dp1632
sI994
(dp1633
sI996
(dp1634
sI999
(dp1635
sI1001
(dp1636
sI1003
(dp1637
sI1004
(dp1638
sI1006
(dp1639
sI1011
(dp1640
sI1012
(dp1641
sI1014
(dp1642
sI1017
(dp1643
sI1019
(dp1644
sI1020
(dp1645
sI1027
(dp1646
sI1031
(dp1647
sI1035
(dp1648
sI1036
(dp1649
sI1042
(dp1650
sI1047
(dp1651
sI1052
(dp1652
sI1058
(dp1653
sI1063
(dp1654
sI1064
(dp1655
sI1069
(dp1656
sI1070
(dp1657
sI1071
(dp1658
sI1076
(dp1659
sI1079
(dp1660
sI1081
(dp1661
sI1082
(dp1662
sI1084
(dp1663
sI1088
(dp1664
sI1090
(dp1665
sI1091
(dp1666
sI1100
(dp1667
sI1101
(dp1668
sI1107
(dp1669
sI1109
(dp1670
sI1110
(dp1671
sI1111
(dp1672
sI1114
(dp1673
sI1118
(dp1674
sI1120
(dp1675
sI1122
(dp1676
sI1124
(dp1677
sI1127
(dp1678
sI1128
(dp1679
sI1132
(dp1680
sI1134
(dp1681
sI1135
(dp1682
sI1140
(dp1683
sI1141
(dp1684
sI1151
(dp1685
ssI6
(dp1686
I67
(dp1687
ssI7
(dp1688
I67
(dp1689
ssI8
(dp1690
I67
(dp1691
ssI9
(dp1692
I67
(dp1693
ssI10
(dp1694
I83
(dp1695
sI67
(dp1696
sI5
g1186
sI559
(dp1697
ssI11
(dp1698
I83
(dp1699
sI67
(dp1700
ssI12
(dp1701
I67
(dp1702
ssI13
(dp1703
I67
(dp1704
sI5
g1187
ssI14
(dp1705
I67
(dp1706
sI5
g1188
ssI15
(dp1707
I83
(dp1708
sI67
(dp1709
sI5
g1189
ssI16
(dp1710
I83
(dp1711
sI67
(dp1712
ssI17
(dp1713
I83
(dp1714
sI67
(dp1715
sI5
g1190
ssI18
(dp1716
I67
(dp1717
ssI19
(dp1718
I67
(dp1719
sI5
g1191
ssI20
(dp1720
I32
(dp1721
sI321
(dp1722
sI258
(dp1723
sI67
(dp1724
sI101
(dp1725
sI386
(dp1726
sI72
(dp1727
sI322
(dp1728
sI46
(dp1729
sI559
(dp1730
sI370
(dp1731
sI83
(dp1732
sI174
(dp1733
sI246
(dp1734
sI608
(dp1735
sI88
(dp1736
sI441
(dp1737
sI443
(dp1738
sI158
(dp1739
sI5
g1192
ssI21
(dp1740
I67
(dp1741
ssI22
(dp1742
I83
(dp1743
sI67
(dp1744
sI5
g1193
ssI23
(dp1745
I67
(dp1746
sI5
g1194
ssI24
(dp1747
I83
(dp1748
sI67
(dp1749
sI5
g1195
ssI25
(dp1750
I32
(dp1751
sI608
(dp1752
sI258
(dp1753
sI67
(dp1754
sI5
g1196
sI386
(dp1755
sI46
(dp1756
sI559
(dp1757
sI752
(dp1758
sI498
(dp1759
sI370
(dp1760
sI83
(dp1761
sI174
(dp1762
sI246
(dp1763
sI280
(dp1764
sI719
(dp1765
sI158
(dp1766
ssI26
(dp1767
I83
(dp1768
sI67
(dp1769
sI5
g1197
ssI27
(dp1770
I67
(dp1771
ssI28
(dp1772
I83
(dp1773
sI67
(dp1774
sI5
g1198
ssI29
(dp1775
I83
(dp1776
sI67
(dp1777
sI5
g1199
ssI30
(dp1778
I83
(dp1779
sI67
(dp1780
sI5
g1200
ssI31
(dp1781
I67
(dp1782
ssI32
(dp1783
I608
(dp1784
sI129
(dp1785
sI258
(dp1786
sI67
(dp1787
sI5
g1201
sI321
(dp1788
sI72
(dp1789
sI386
(dp1790
sI174
(dp1791
sI498
(dp1792
sI273
(dp1793
sI370
(dp1794
sI83
(dp1795
sI20
g1721
sI246
(dp1796
sI25
g1751
sI88
(dp1797
sI441
(dp1798
sI559
(dp1799
sI280
(dp1800
ssI33
(dp1801
I67
(dp1802
sI5
g1202
ssI34
(dp1803
I67
(dp1804
ssI35
(dp1805
I67
(dp1806
sI5
g1203
ssI36
(dp1807
I67
(dp1808
sI5
g1204
ssI37
(dp1809
I67
(dp1810
ssI38
(dp1811
I67
(dp1812
ssI39
(dp1813
I67
(dp1814
sI5
g1205
ssI40
(dp1815
I67
(dp1816
sI5
g1206
ssI41
(dp1817
I67
(dp1818
sI5
g1207
ssI42
(dp1819
I67
(dp1820
sI5
g1208
sI559
(dp1821
ssI43
(dp1822
I67
(dp1823
ssI44
(dp1824
I67
(dp1825
ssI45
(dp1826
I67
(dp1827
sI5
g1209
ssI46
(dp1828
I608
(dp1829
sI441
(dp1830
sI258
(dp1831
sI67
(dp1832
sI5
g1210
sI386
(dp1833
sI322
(dp1834
sI174
(dp1835
sI559
(dp1836
sI560
(dp1837
sI273
(dp1838
sI370
(dp1839
sI83
(dp1840
sI20
g1729
sI498
(dp1841
sI280
(dp1842
sI88
(dp1843
sI25
g1756
sI752
(dp1844
sI158
(dp1845
sI101
(dp1846
ssI47
(dp1847
I83
(dp1848
sI67
(dp1849
ssI48
(dp1850
I386
(dp1851
sI67
(dp1852
sI5
g1211
ssI49
(dp1853
I83
(dp1854
sI67
(dp1855
sI5
g1212
ssI50
(dp1856
I67
(dp1857
sI5
g1213
ssI51
(dp1858
I83
(dp1859
sI67
(dp1860
sI5
g1214
ssI52
(dp1861
I67
(dp1862
ssI53
(dp1863
I83
(dp1864
sI67
(dp1865
sI5
g1215
ssI54
(dp1866
I67
(dp1867
ssI55
(dp1868
I67
(dp1869
ssI56
(dp1870
I83
(dp1871
sI67
(dp1872
ssI57
(dp1873
I83
(dp1874
sI67
(dp1875
sI5
g1216
ssI58
(dp1876
I67
(dp1877
sI559
(dp1878
ssI59
(dp1879
I67
(dp1880
ssI60
(dp1881
I83
(dp1882
sI67
(dp1883
ssI61
(dp1884
I83
(dp1885
sI67
(dp1886
sI5
g1217
ssI62
(dp1887
I83
(dp1888
sI67
(dp1889
sI5
g1218
ssI63
(dp1890
I67
(dp1891
ssI64
(dp1892
I67
(dp1893
ssI65
(dp1894
I67
(dp1895
sI5
g1219
ssI66
(dp1896
I83
(dp1897
sI67
(dp1898
sI5
g1220
ssI67
(dp1899
I0
g1165
sI1
g1168
sI2
g1172
sI3
g1181
sI4
g1184
sI5
g1221
sI6
g1687
sI7
g1689
sI8
g1691
sI9
g1693
sI10
g1696
sI11
g1700
sI12
g1702
sI13
g1704
sI14
g1706
sI15
g1709
sI16
g1712
sI17
g1715
sI18
g1717
sI19
g1719
sI20
g1724
sI21
g1741
sI22
g1744
sI23
g1746
sI24
g1749
sI25
g1754
sI26
g1769
sI27
g1771
sI28
g1774
sI29
g1777
sI30
g1780
sI31
g1782
sI32
g1787
sI33
g1802
sI34
g1804
sI35
g1806
sI36
g1808
sI37
g1810
sI38
g1812
sI39
g1814
sI40
g1816
sI41
g1818
sI42
g1820
sI43
g1823
sI44
g1825
sI45
g1827
sI46
g1832
sI47
g1849
sI48
g1852
sI49
g1855
sI50
g1857
sI51
g1860
sI52
g1862
sI53
g1865
sI54
g1867
sI55
g1869
sI56
g1872
sI57
g1875
sI58
g1877
sI59
g1880
sI60
g1883
sI61
g1886
sI62
g1889
sI63
g1891
sI64
g1893
sI65
g1895
sI66
g1898
sI68
(dp1900
sI69
(dp1901
sI70
(dp1902
sI71
(dp1903
sI72
(dp1904
sI73
(dp1905
sI74
(dp1906
sI75
(dp1907
sI76
(dp1908
sI77
(dp1909
sI78
(dp1910
sI79
(dp1911
sI80
(dp1912
sI81
(dp1913
sI82
(dp1914
sI83
(dp1915
sI84
(dp1916
sI85
(dp1917
sI86
(dp1918
sI87
(dp1919
sI88
(dp1920
sI89
(dp1921
sI90
(dp1922
sI91
(dp1923
sI92
(dp1924
sI93
(dp1925
sI94
(dp1926
sI95
(dp1927
sI96
(dp1928
sI97
(dp1929
sI98
(dp1930
sI99
(dp1931
sI100
(dp1932
sI101
(dp1933
sI102
(dp1934
sI103
(dp1935
sI104
(dp1936
sI105
(dp1937
sI106
(dp1938
sI107
(dp1939
sI108
(dp1940
sI109
(dp1941
sI110
(dp1942
sI111
(dp1943
sI112
(dp1944
sI113
(dp1945
sI114
(dp1946
sI115
(dp1947
sI116
(dp1948
sI117
(dp1949
sI118
(dp1950
sI119
(dp1951
sI120
(dp1952
sI121
(dp1953
sI122
(dp1954
sI123
(dp1955
sI124
(dp1956
sI125
(dp1957
sI126
(dp1958
sI127
(dp1959
sI128
(dp1960
sI129
(dp1961
sI130
(dp1962
sI131
(dp1963
sI132
(dp1964
sI133
(dp1965
sI134
(dp1966
sI135
(dp1967
sI136
(dp1968
sI137
(dp1969
sI138
(dp1970
sI139
(dp1971
sI140
(dp1972
sI141
(dp1973
sI142
(dp1974
sI143
(dp1975
sI144
(dp1976
sI145
(dp1977
sI146
(dp1978
sI147
(dp1979
sI148
(dp1980
sI149
(dp1981
sI150
(dp1982
sI151
(dp1983
sI152
(dp1984
sI153
(dp1985
sI154
(dp1986
sI155
(dp1987
sI156
(dp1988
sI157
(dp1989
sI158
(dp1990
sI159
(dp1991
sI160
(dp1992
sI161
(dp1993
sI162
(dp1994
sI163
(dp1995
sI164
(dp1996
sI165
(dp1997
sI166
(dp1998
sI167
(dp1999
sI168
(dp2000
sI169
(dp2001
sI170
(dp2002
sI171
(dp2003
sI172
(dp2004
sI173
(dp2005
sI174
(dp2006
sI175
(dp2007
sI176
(dp2008
sI177
(dp2009
sI178
(dp2010
sI179
(dp2011
sI180
(dp2012
sI181
(dp2013
sI182
(dp2014
sI183
(dp2015
sI184
(dp2016
sI185
(dp2017
sI186
(dp2018
sI187
(dp2019
sI188
(dp2020
sI189
(dp2021
sI190
(dp2022
sI191
(dp2023
sI192
(dp2024
sI193
(dp2025
sI194
(dp2026
sI195
(dp2027
sI196
(dp2028
sI197
(dp2029
sI198
(dp2030
sI199
(dp2031
sI200
(dp2032
sI201
(dp2033
sI202
(dp2034
sI203
(dp2035
sI204
(dp2036
sI205
(dp2037
sI206
(dp2038
sI207
(dp2039
sI208
(dp2040
sI209
(dp2041
sI210
(dp2042
sI211
(dp2043
sI212
(dp2044
sI213
(dp2045
sI214
(dp2046
sI215
(dp2047
sI216
(dp2048
sI217
(dp2049
sI218
(dp2050
sI219
(dp2051
sI220
(dp2052
sI221
(dp2053
sI222
(dp2054
sI223
(dp2055
sI224
(dp2056
sI225
(dp2057
sI226
(dp2058
sI227
(dp2059
sI228
(dp2060
sI229
(dp2061
sI230
(dp2062
sI231
(dp2063
sI232
(dp2064
sI233
(dp2065
sI234
(dp2066
sI235
(dp2067
sI236
(dp2068
sI237
(dp2069
sI238
(dp2070
sI239
(dp2071
sI240
(dp2072
sI241
(dp2073
sI242
(dp2074
sI243
(dp2075
sI244
(dp2076
sI245
(dp2077
sI246
(dp2078
sI247
(dp2079
sI248
(dp2080
sI249
(dp2081
sI250
(dp2082
sI251
(dp2083
sI252
(dp2084
sI253
(dp2085
sI254
(dp2086
sI255
(dp2087
sI256
(dp2088
sI257
(dp2089
sI258
(dp2090
sI259
(dp2091
sI260
(dp2092
sI261
(dp2093
sI262
(dp2094
sI263
(dp2095
sI264
(dp2096
sI265
(dp2097
sI266
(dp2098
sI267
(dp2099
sI268
(dp2100
sI269
(dp2101
sI270
(dp2102
sI271
(dp2103
sI272
(dp2104
sI273
(dp2105
sI274
(dp2106
sI275
(dp2107
sI276
(dp2108
sI277
(dp2109
sI278
(dp2110
sI279
(dp2111
sI280
(dp2112
sI281
(dp2113
sI282
(dp2114
sI283
(dp2115
sI284
(dp2116
sI285
(dp2117
sI286
(dp2118
sI287
(dp2119
sI288
(dp2120
sI289
(dp2121
sI290
(dp2122
sI291
(dp2123
sI292
(dp2124
sI293
(dp2125
sI295
(dp2126
sI296
(dp2127
sI298
(dp2128
sI299
(dp2129
sI300
(dp2130
sI301
(dp2131
sI302
(dp2132
sI303
(dp2133
sI304
(dp2134
sI305
(dp2135
sI306
(dp2136
sI307
(dp2137
sI308
(dp2138
sI309
(dp2139
sI310
(dp2140
sI311
(dp2141
sI312
(dp2142
sI313
(dp2143
sI314
(dp2144
sI315
(dp2145
sI316
(dp2146
sI317
(dp2147
sI318
(dp2148
sI319
(dp2149
sI320
(dp2150
sI321
(dp2151
sI322
(dp2152
sI323
(dp2153
sI324
(dp2154
sI325
(dp2155
sI326
(dp2156
sI327
(dp2157
sI328
(dp2158
sI329
(dp2159
sI330
(dp2160
sI331
(dp2161
sI332
(dp2162
sI333
(dp2163
sI334
(dp2164
sI335
(dp2165
sI336
(dp2166
sI337
(dp2167
sI338
(dp2168
sI339
(dp2169
sI340
(dp2170
sI341
(dp2171
sI342
(dp2172
sI343
(dp2173
sI344
(dp2174
sI345
(dp2175
sI346
(dp2176
sI347
(dp2177
sI348
(dp2178
sI349
(dp2179
sI350
(dp2180
sI351
(dp2181
sI352
(dp2182
sI353
(dp2183
sI354
(dp2184
sI355
(dp2185
sI356
(dp2186
sI357
(dp2187
sI358
(dp2188
sI359
(dp2189
sI360
(dp2190
sI361
(dp2191
sI362
(dp2192
sI363
(dp2193
sI364
(dp2194
sI365
(dp2195
sI366
(dp2196
sI367
(dp2197
sI368
(dp2198
sI369
(dp2199
sI370
(dp2200
sI371
(dp2201
sI372
(dp2202
sI373
(dp2203
sI374
(dp2204
sI375
(dp2205
sI376
(dp2206
sI377
(dp2207
sI379
(dp2208
sI380
(dp2209
sI381
(dp2210
sI382
(dp2211
sI383
(dp2212
sI384
(dp2213
sI385
(dp2214
sI386
(dp2215
sI387
(dp2216
sI388
(dp2217
sI389
(dp2218
sI390
(dp2219
sI391
(dp2220
sI392
(dp2221
sI393
(dp2222
sI394
(dp2223
sI395
(dp2224
sI396
(dp2225
sI397
(dp2226
sI398
(dp2227
sI399
(dp2228
sI400
(dp2229
sI401
(dp2230
sI402
(dp2231
sI403
(dp2232
sI404
(dp2233
sI405
(dp2234
sI406
(dp2235
sI407
(dp2236
sI408
(dp2237
sI409
(dp2238
sI410
(dp2239
sI411
(dp2240
sI412
(dp2241
sI413
(dp2242
sI414
(dp2243
sI415
(dp2244
sI416
(dp2245
sI417
(dp2246
sI418
(dp2247
sI419
(dp2248
sI420
(dp2249
sI421
(dp2250
sI422
(dp2251
sI423
(dp2252
sI424
(dp2253
sI425
(dp2254
sI426
(dp2255
sI427
(dp2256
sI428
(dp2257
sI429
(dp2258
sI430
(dp2259
sI431
(dp2260
sI432
(dp2261
sI433
(dp2262
sI434
(dp2263
sI435
(dp2264
sI436
(dp2265
sI437
(dp2266
sI438
(dp2267
sI439
(dp2268
sI440
(dp2269
sI441
(dp2270
sI442
(dp2271
sI443
(dp2272
sI444
(dp2273
sI445
(dp2274
sI446
(dp2275
sI447
(dp2276
sI448
(dp2277
sI449
(dp2278
sI450
(dp2279
sI451
(dp2280
sI452
(dp2281
sI453
(dp2282
sI454
(dp2283
sI455
(dp2284
sI456
(dp2285
sI457
(dp2286
sI458
(dp2287
sI459
(dp2288
sI460
(dp2289
sI461
(dp2290
sI462
(dp2291
sI463
(dp2292
sI464
(dp2293
sI465
(dp2294
sI466
(dp2295
sI467
(dp2296
sI468
(dp2297
sI470
(dp2298
sI471
(dp2299
sI472
(dp2300
sI473
(dp2301
sI474
(dp2302
sI475
(dp2303
sI476
(dp2304
sI477
(dp2305
sI478
(dp2306
sI479
(dp2307
sI480
(dp2308
sI481
(dp2309
sI482
(dp2310
sI483
(dp2311
sI484
(dp2312
sI485
(dp2313
sI486
(dp2314
sI487
(dp2315
sI488
(dp2316
sI489
(dp2317
sI490
(dp2318
sI491
(dp2319
sI492
(dp2320
sI493
(dp2321
sI494
(dp2322
sI495
(dp2323
sI496
(dp2324
sI497
(dp2325
sI498
(dp2326
sI499
(dp2327
sI500
(dp2328
sI501
(dp2329
sI502
(dp2330
sI503
(dp2331
sI504
(dp2332
sI505
(dp2333
sI506
(dp2334
sI507
(dp2335
sI508
(dp2336
sI509
(dp2337
sI510
(dp2338
sI511
(dp2339
sI512
(dp2340
sI513
(dp2341
sI514
(dp2342
sI515
(dp2343
sI516
(dp2344
sI517
(dp2345
sI519
(dp2346
sI520
(dp2347
sI521
(dp2348
sI522
(dp2349
sI523
(dp2350
sI524
(dp2351
sI525
(dp2352
sI526
(dp2353
sI527
(dp2354
sI528
(dp2355
sI529
(dp2356
sI530
(dp2357
sI531
(dp2358
sI532
(dp2359
sI533
(dp2360
sI534
(dp2361
sI535
(dp2362
sI536
(dp2363
sI539
(dp2364
sI540
(dp2365
sI541
(dp2366
sI542
(dp2367
sI543
(dp2368
sI544
(dp2369
sI545
(dp2370
sI546
(dp2371
sI547
(dp2372
sI548
(dp2373
sI549
(dp2374
sI550
(dp2375
sI551
(dp2376
sI552
(dp2377
sI553
(dp2378
sI554
(dp2379
sI555
(dp2380
sI556
(dp2381
sI557
(dp2382
sI558
(dp2383
sI559
(dp2384
sI560
(dp2385
sI562
(dp2386
sI563
(dp2387
sI564
(dp2388
sI565
(dp2389
sI566
(dp2390
sI567
(dp2391
sI568
(dp2392
sI569
(dp2393
sI570
(dp2394
sI571
(dp2395
sI572
(dp2396
sI573
(dp2397
sI574
(dp2398
sI575
(dp2399
sI576
(dp2400
sI577
(dp2401
sI578
(dp2402
sI579
(dp2403
sI580
(dp2404
sI581
(dp2405
sI582
(dp2406
sI583
(dp2407
sI584
(dp2408
sI585
(dp2409
sI586
(dp2410
sI587
(dp2411
sI588
(dp2412
sI589
(dp2413
sI590
(dp2414
sI591
(dp2415
sI592
(dp2416
sI593
(dp2417
sI594
(dp2418
sI595
(dp2419
sI596
(dp2420
sI597
(dp2421
sI598
(dp2422
sI599
(dp2423
sI600
(dp2424
sI601
(dp2425
sI602
(dp2426
sI603
(dp2427
sI604
(dp2428
sI605
(dp2429
sI606
(dp2430
sI607
(dp2431
sI608
(dp2432
sI609
(dp2433
sI610
(dp2434
sI611
(dp2435
sI612
(dp2436
sI613
(dp2437
sI614
(dp2438
sI615
(dp2439
sI616
(dp2440
sI617
(dp2441
sI618
(dp2442
sI619
(dp2443
sI620
(dp2444
sI621
(dp2445
sI622
(dp2446
sI623
(dp2447
sI624
(dp2448
sI625
(dp2449
sI626
(dp2450
sI628
(dp2451
sI629
(dp2452
sI630
(dp2453
sI631
(dp2454
sI632
(dp2455
sI633
(dp2456
sI634
(dp2457
sI635
(dp2458
sI636
(dp2459
sI637
(dp2460
sI638
(dp2461
sI639
(dp2462
sI640
(dp2463
sI641
(dp2464
sI642
(dp2465
sI643
(dp2466
sI644
(dp2467
sI645
(dp2468
sI646
(dp2469
sI647
(dp2470
sI648
(dp2471
sI649
(dp2472
sI650
(dp2473
sI651
(dp2474
sI652
(dp2475
sI653
(dp2476
sI654
(dp2477
sI655
(dp2478
sI656
(dp2479
sI657
(dp2480
sI658
(dp2481
sI659
(dp2482
sI660
(dp2483
sI661
(dp2484
sI662
(dp2485
sI663
(dp2486
sI664
(dp2487
sI665
(dp2488
sI666
(dp2489
sI667
(dp2490
sI668
(dp2491
sI669
(dp2492
sI670
(dp2493
sI671
(dp2494
sI672
(dp2495
sI673
(dp2496
sI674
(dp2497
sI675
(dp2498
sI676
(dp2499
sI677
(dp2500
sI678
(dp2501
sI679
(dp2502
sI680
(dp2503
sI681
(dp2504
sI682
(dp2505
sI683
(dp2506
sI684
(dp2507
sI685
(dp2508
sI686
(dp2509
sI687
(dp2510
sI688
(dp2511
sI689
(dp2512
sI690
(dp2513
sI691
(dp2514
sI692
(dp2515
sI693
(dp2516
sI694
(dp2517
sI695
(dp2518
sI696
(dp2519
sI697
(dp2520
sI698
(dp2521
sI699
(dp2522
sI700
(dp2523
sI701
(dp2524
sI702
(dp2525
sI704
(dp2526
sI705
(dp2527
sI706
(dp2528
sI707
(dp2529
sI708
(dp2530
sI709
(dp2531
sI710
(dp2532
sI711
(dp2533
sI712
(dp2534
sI713
(dp2535
sI714
(dp2536
sI715
(dp2537
sI716
(dp2538
sI717
(dp2539
sI718
(dp2540
sI719
(dp2541
sI720
(dp2542
sI721
(dp2543
sI722
(dp2544
sI723
(dp2545
sI724
(dp2546
sI725
(dp2547
sI726
(dp2548
sI727
(dp2549
sI728
(dp2550
sI729
(dp2551
sI730
(dp2552
sI731
(dp2553
sI732
(dp2554
sI733
(dp2555
sI734
(dp2556
sI735
(dp2557
sI736
(dp2558
sI737
(dp2559
sI738
(dp2560
sI739
(dp2561
sI740
(dp2562
sI741
(dp2563
sI742
(dp2564
sI743
(dp2565
sI744
(dp2566
sI745
(dp2567
sI746
(dp2568
sI747
(dp2569
sI748
(dp2570
sI749
(dp2571
sI750
(dp2572
sI751
(dp2573
sI752
(dp2574
sI753
(dp2575
sI754
(dp2576
sI755
(dp2577
sI756
(dp2578
sI757
(dp2579
sI759
(dp2580
sI760
(dp2581
sI761
(dp2582
sI762
(dp2583
sI763
(dp2584
sI764
(dp2585
sI765
(dp2586
sI766
(dp2587
sI768
(dp2588
sI769
(dp2589
sI770
(dp2590
sI771
(dp2591
sI772
(dp2592
sI773
(dp2593
sI774
(dp2594
sI775
(dp2595
sI776
(dp2596
sI777
(dp2597
sI778
(dp2598
sI779
(dp2599
sI780
(dp2600
sI781
(dp2601
sI782
(dp2602
sI783
(dp2603
sI784
(dp2604
sI785
(dp2605
sI786
(dp2606
sI787
(dp2607
sI788
(dp2608
sI789
(dp2609
sI790
(dp2610
sI791
(dp2611
sI792
(dp2612
sI793
(dp2613
sI794
(dp2614
sI795
(dp2615
sI796
(dp2616
sI797
(dp2617
sI798
(dp2618
sI799
(dp2619
sI800
(dp2620
sI801
(dp2621
sI802
(dp2622
sI803
(dp2623
sI804
(dp2624
sI805
(dp2625
sI806
(dp2626
sI807
(dp2627
sI808
(dp2628
sI809
(dp2629
sI810
(dp2630
sI811
(dp2631
sI812
(dp2632
sI813
(dp2633
sI814
(dp2634
sI815
(dp2635
sI816
(dp2636
sI817
(dp2637
sI818
(dp2638
sI819
(dp2639
sI820
(dp2640
sI821
(dp2641
sI822
(dp2642
sI823
(dp2643
sI824
(dp2644
sI825
(dp2645
sI826
(dp2646
sI827
(dp2647
sI828
(dp2648
sI829
(dp2649
sI830
(dp2650
sI831
(dp2651
sI832
(dp2652
sI833
(dp2653
sI834
(dp2654
sI835
(dp2655
sI836
(dp2656
sI837
(dp2657
sI838
(dp2658
sI839
(dp2659
sI840
(dp2660
sI841
(dp2661
sI842
(dp2662
sI843
(dp2663
sI844
(dp2664
sI845
(dp2665
sI846
(dp2666
sI847
(dp2667
sI848
(dp2668
sI849
(dp2669
sI850
(dp2670
sI851
(dp2671
sI852
(dp2672
sI853
(dp2673
sI854
(dp2674
sI855
(dp2675
sI856
(dp2676
sI857
(dp2677
sI858
(dp2678
sI859
(dp2679
sI860
(dp2680
sI861
(dp2681
sI862
(dp2682
sI863
(dp2683
sI864
(dp2684
sI866
(dp2685
sI867
(dp2686
sI868
(dp2687
sI869
(dp2688
sI870
(dp2689
sI871
(dp2690
sI872
(dp2691
sI873
(dp2692
sI874
(dp2693
sI875
(dp2694
sI876
(dp2695
sI877
(dp2696
sI878
(dp2697
sI879
(dp2698
sI880
(dp2699
sI881
(dp2700
sI882
(dp2701
sI883
(dp2702
sI884
(dp2703
sI885
(dp2704
sI886
(dp2705
sI887
(dp2706
sI888
(dp2707
sI889
(dp2708
sI890
(dp2709
sI891
(dp2710
sI892
(dp2711
sI893
(dp2712
sI894
(dp2713
sI895
(dp2714
sI897
(dp2715
sI898
(dp2716
sI899
(dp2717
sI900
(dp2718
sI901
(dp2719
sI902
(dp2720
sI903
(dp2721
sI904
(dp2722
sI905
(dp2723
sI906
(dp2724
sI907
(dp2725
sI908
(dp2726
sI909
(dp2727
sI910
(dp2728
sI911
(dp2729
sI912
(dp2730
sI913
(dp2731
sI914
(dp2732
sI915
(dp2733
sI916
(dp2734
sI917
(dp2735
sI918
(dp2736
sI919
(dp2737
sI920
(dp2738
sI921
(dp2739
sI922
(dp2740
sI923
(dp2741
sI924
(dp2742
sI925
(dp2743
sI926
(dp2744
sI927
(dp2745
sI928
(dp2746
sI929
(dp2747
sI930
(dp2748
sI931
(dp2749
sI932
(dp2750
sI933
(dp2751
sI934
(dp2752
sI935
(dp2753
sI936
(dp2754
sI937
(dp2755
sI938
(dp2756
sI939
(dp2757
sI940
(dp2758
sI941
(dp2759
sI942
(dp2760
sI943
(dp2761
sI945
(dp2762
sI946
(dp2763
sI947
(dp2764
sI948
(dp2765
sI949
(dp2766
sI950
(dp2767
sI951
(dp2768
sI952
(dp2769
sI953
(dp2770
sI954
(dp2771
sI955
(dp2772
sI956
(dp2773
sI957
(dp2774
sI958
(dp2775
sI959
(dp2776
sI960
(dp2777
sI961
(dp2778
sI962
(dp2779
sI963
(dp2780
sI964
(dp2781
sI965
(dp2782
sI967
(dp2783
sI968
(dp2784
sI970
(dp2785
sI971
(dp2786
sI972
(dp2787
sI973
(dp2788
sI974
(dp2789
sI975
(dp2790
sI977
(dp2791
sI979
(dp2792
sI980
(dp2793
sI981
(dp2794
sI982
(dp2795
sI983
(dp2796
sI984
(dp2797
sI985
(dp2798
sI986
(dp2799
sI987
(dp2800
sI988
(dp2801
sI989
(dp2802
sI990
(dp2803
sI991
(dp2804
sI992
(dp2805
sI994
(dp2806
sI995
(dp2807
sI996
(dp2808
sI997
(dp2809
sI998
(dp2810
sI1000
(dp2811
sI1001
(dp2812
sI1002
(dp2813
sI1003
(dp2814
sI1004
(dp2815
sI1005
(dp2816
sI1006
(dp2817
sI1007
(dp2818
sI1008
(dp2819
sI1009
(dp2820
sI1010
(dp2821
sI1011
(dp2822
sI1012
(dp2823
sI1013
(dp2824
sI1015
(dp2825
sI1016
(dp2826
sI1017
(dp2827
sI1018
(dp2828
sI1019
(dp2829
sI1020
(dp2830
sI1021
(dp2831
sI1022
(dp2832
sI1023
(dp2833
sI1024
(dp2834
sI1025
(dp2835
sI1026
(dp2836
sI1027
(dp2837
sI1028
(dp2838
sI1029
(dp2839
sI1030
(dp2840
sI1031
(dp2841
sI1032
(dp2842
sI1033
(dp2843
sI1034
(dp2844
sI1035
(dp2845
sI1036
(dp2846
sI1037
(dp2847
sI1038
(dp2848
sI1039
(dp2849
sI1040
(dp2850
sI1041
(dp2851
sI1042
(dp2852
sI1043
(dp2853
sI1044
(dp2854
sI1045
(dp2855
sI1046
(dp2856
sI1047
(dp2857
sI1048
(dp2858
sI1049
(dp2859
sI1051
(dp2860
sI1052
(dp2861
sI1053
(dp2862
sI1054
(dp2863
sI1055
(dp2864
sI1056
(dp2865
sI1057
(dp2866
sI1058
(dp2867
sI1059
(dp2868
sI1060
(dp2869
sI1061
(dp2870
sI1062
(dp2871
sI1063
(dp2872
sI1064
(dp2873
sI1065
(dp2874
sI1066
(dp2875
sI1067
(dp2876
sI1068
(dp2877
sI1069
(dp2878
sI1070
(dp2879
sI1071
(dp2880
sI1072
(dp2881
sI1073
(dp2882
sI1074
(dp2883
sI1075
(dp2884
sI1076
(dp2885
sI1077
(dp2886
sI1078
(dp2887
sI1079
(dp2888
sI1080
(dp2889
sI1081
(dp2890
sI1082
(dp2891
sI1083
(dp2892
sI1084
(dp2893
sI1085
(dp2894
sI1086
(dp2895
sI1087
(dp2896
sI1088
(dp2897
sI1089
(dp2898
sI1090
(dp2899
sI1091
(dp2900
sI1092
(dp2901
sI1093
(dp2902
sI1094
(dp2903
sI1095
(dp2904
sI1096
(dp2905
sI1097
(dp2906
sI1098
(dp2907
sI1099
(dp2908
sI1100
(dp2909
sI1101
(dp2910
sI1102
(dp2911
sI1103
(dp2912
sI1104
(dp2913
sI1105
(dp2914
sI1106
(dp2915
sI1107
(dp2916
sI1108
(dp2917
sI1109
(dp2918
sI1110
(dp2919
sI1111
(dp2920
sI1112
(dp2921
sI1113
(dp2922
sI1114
(dp2923
sI1115
(dp2924
sI1116
(dp2925
sI1117
(dp2926
sI1118
(dp2927
sI1119
(dp2928
sI1120
(dp2929
sI1121
(dp2930
sI1122
(dp2931
sI1123
(dp2932
sI1124
(dp2933
sI1125
(dp2934
sI1126
(dp2935
sI1127
(dp2936
sI1128
(dp2937
sI1129
(dp2938
sI1130
(dp2939
sI1131
(dp2940
sI1132
(dp2941
sI1133
(dp2942
sI1134
(dp2943
sI1135
(dp2944
sI1136
(dp2945
sI1137
(dp2946
sI1138
(dp2947
sI1139
(dp2948
sI1140
(dp2949
sI1141
(dp2950
sI1142
(dp2951
sI1143
(dp2952
sI1144
(dp2953
sI1145
(dp2954
sI1146
(dp2955
sI1147
(dp2956
sI1148
(dp2957
sI1149
(dp2958
sI1150
(dp2959
ssI68
(dp2960
I83
(dp2961
sI67
g1900
sI5
g1222
ssI69
(dp2962
I83
(dp2963
sI67
g1901
ssI70
(dp2964
I83
(dp2965
sI67
g1902
sI5
g1223
sI386
(dp2966
ssI71
(dp2967
I67
g1903
ssI72
(dp2968
I32
g1789
sI129
(dp2969
sI258
(dp2970
sI67
g1904
sI5
g1224
sI109
(dp2971
sI386
(dp2972
sI559
(dp2973
sI370
(dp2974
sI83
(dp2975
sI20
g1727
sI608
(dp2976
sI441
(dp2977
sI719
(dp2978
sI158
(dp2979
sI127
(dp2980
ssI73
(dp2981
I67
g1905
ssI74
(dp2982
I67
g1906
sI5
g1225
sI559
(dp2983
ssI75
(dp2984
I67
g1907
ssI76
(dp2985
I67
g1908
ssI77
(dp2986
I83
(dp2987
sI67
g1909
sI5
g1226
ssI78
(dp2988
I67
g1910
ssI79
(dp2989
I67
g1911
ssI80
(dp2990
I67
g1912
sI5
g1227
ssI81
(dp2991
I67
g1913
ssI82
(dp2992
I67
g1914
ssI83
(dp2993
I1
g1167
sI2
g1178
sI3
g1180
sI516
(dp2994
sI5
g1228
sI518
(dp2995
sI513
(dp2996
sI520
(dp2997
sI989
(dp2998
sI523
(dp2999
sI15
g1708
sI16
g1711
sI17
g1714
sI1027
(dp3000
sI532
(dp3001
sI1046
(dp3002
sI601
(dp3003
sI1048
(dp3004
sI4
g1183
sI1050
(dp3005
sI28
g1773
sI29
g1776
sI30
g1779
sI773
(dp3006
sI32
g1795
sI546
(dp3007
sI547
(dp3008
sI554
(dp3009
sI558
(dp3010
sI559
(dp3011
sI560
(dp3012
sI49
g1854
sI51
g1859
sI564
(dp3013
sI862
(dp3014
sI631
(dp3015
sI57
g1874
sI1127
(dp3016
sI572
(dp3017
sI573
(dp3018
sI62
g1888
sI949
(dp3019
sI66
g1897
sI67
g1915
sI68
g2961
sI69
g2963
sI70
g2965
sI72
g2975
sI1098
(dp3020
sI704
(dp3021
sI588
(dp3022
sI77
g2987
sI590
(dp3023
sI593
(dp3024
sI867
(dp3025
sI598
(dp3026
sI87
(dp3027
sI88
(dp3028
sI89
(dp3029
sI1115
(dp3030
sI92
(dp3031
sI954
(dp3032
sI20
g1732
sI95
(dp3033
sI608
(dp3034
sI98
(dp3035
sI699
(dp3036
sI100
(dp3037
sI101
(dp3038
sI103
(dp3039
sI1128
(dp3040
sI106
(dp3041
sI107
(dp3042
sI620
(dp3043
sI109
(dp3044
sI1134
(dp3045
sI1135
(dp3046
sI625
(dp3047
sI114
(dp3048
sI1043
(dp3049
sI117
(dp3050
sI118
(dp3051
sI119
(dp3052
sI632
(dp3053
sI121
(dp3054
sI959
(dp3055
sI636
(dp3056
sI125
(dp3057
sI127
(dp3058
sI128
(dp3059
sI129
(dp3060
sI130
(dp3061
sI131
(dp3062
sI22
g1743
sI648
(dp3063
sI141
(dp3064
sI143
(dp3065
sI24
g1748
sI147
(dp3066
sI661
(dp3067
sI56
g1871
sI664
(dp3068
sI153
(dp3069
sI879
(dp3070
sI156
(dp3071
sI157
(dp3072
sI158
(dp3073
sI160
(dp3074
sI674
(dp3075
sI619
(dp3076
sI676
(dp3077
sI167
(dp3078
sI680
(dp3079
sI169
(dp3080
sI682
(dp3081
sI171
(dp3082
sI174
(dp3083
sI797
(dp3084
sI176
(dp3085
sI177
(dp3086
sI181
(dp3087
sI182
(dp3088
sI183
(dp3089
sI185
(dp3090
sI187
(dp3091
sI700
(dp3092
sI192
(dp3093
sI193
(dp3094
sI194
(dp3095
sI707
(dp3096
sI708
(dp3097
sI25
g1761
sI198
(dp3098
sI200
(dp3099
sI201
(dp3100
sI714
(dp3101
sI203
(dp3102
sI802
(dp3103
sI207
(dp3104
sI208
(dp3105
sI210
(dp3106
sI723
(dp3107
sI212
(dp3108
sI213
(dp3109
sI215
(dp3110
sI728
(dp3111
sI719
(dp3112
sI738
(dp3113
sI891
(dp3114
sI894
(dp3115
sI230
(dp3116
sI743
(dp3117
sI639
(dp3118
sI235
(dp3119
sI722
(dp3120
sI238
(dp3121
sI637
(dp3122
sI752
(dp3123
sI754
(dp3124
sI244
(dp3125
sI757
(dp3126
sI246
(dp3127
sI759
(dp3128
sI249
(dp3129
sI251
(dp3130
sI253
(dp3131
sI258
(dp3132
sI772
(dp3133
sI261
(dp3134
sI641
(dp3135
sI776
(dp3136
sI269
(dp3137
sI783
(dp3138
sI273
(dp3139
sI786
(dp3140
sI46
g1840
sI278
(dp3141
sI280
(dp3142
sI793
(dp3143
sI898
(dp3144
sI47
g1848
sI285
(dp3145
sI287
(dp3146
sI289
(dp3147
sI290
(dp3148
sI803
(dp3149
sI292
(dp3150
sI293
(dp3151
sI295
(dp3152
sI810
(dp3153
sI300
(dp3154
sI61
g1885
sI302
(dp3155
sI303
(dp3156
sI816
(dp3157
sI305
(dp3158
sI1035
(dp3159
sI819
(dp3160
sI316
(dp3161
sI829
(dp3162
sI318
(dp3163
sI53
g1864
sI321
(dp3164
sI322
(dp3165
sI325
(dp3166
sI60
g1882
sI334
(dp3167
sI1058
(dp3168
sI11
g1699
sI849
(dp3169
sI340
(dp3170
sI859
(dp3171
sI349
(dp3172
sI350
(dp3173
sI863
(dp3174
sI355
(dp3175
sI742
(dp3176
sI1137
(dp3177
sI872
(dp3178
sI828
(dp3179
sI876
(dp3180
sI877
(dp3181
sI878
(dp3182
sI367
(dp3183
sI1032
(dp3184
sI881
(dp3185
sI370
(dp3186
sI884
(dp3187
sI807
(dp3188
sI888
(dp3189
sI377
(dp3190
sI890
(dp3191
sI379
(dp3192
sI380
(dp3193
sI382
(dp3194
sI897
(dp3195
sI386
(dp3196
sI387
(dp3197
sI389
(dp3198
sI902
(dp3199
sI393
(dp3200
sI26
g1768
sI911
(dp3201
sI912
(dp3202
sI913
(dp3203
sI1091
(dp3204
sI406
(dp3205
sI920
(dp3206
sI410
(dp3207
sI411
(dp3208
sI415
(dp3209
sI417
(dp3210
sI931
(dp3211
sI421
(dp3212
sI422
(dp3213
sI423
(dp3214
sI427
(dp3215
sI428
(dp3216
sI429
(dp3217
sI430
(dp3218
sI434
(dp3219
sI670
(dp3220
sI951
(dp3221
sI441
(dp3222
sI869
(dp3223
sI443
(dp3224
sI445
(dp3225
sI958
(dp3226
sI447
(dp3227
sI799
(dp3228
sI450
(dp3229
sI453
(dp3230
sI966
(dp3231
sI455
(dp3232
sI697
(dp3233
sI458
(dp3234
sI462
(dp3235
sI612
(dp3236
sI466
(dp3237
sI468
(dp3238
sI471
(dp3239
sI474
(dp3240
sI477
(dp3241
sI479
(dp3242
sI481
(dp3243
sI483
(dp3244
sI485
(dp3245
sI486
(dp3246
sI1020
(dp3247
sI1084
(dp3248
sI1006
(dp3249
sI495
(dp3250
sI496
(dp3251
sI498
(dp3252
sI1011
(dp3253
sI503
(dp3254
sI1017
(dp3255
sI10
g1695
sI508
(dp3256
sI509
(dp3257
ssI84
(dp3258
I67
g1916
sI5
g1229
ssI85
(dp3259
I67
g1917
sI5
g1230
ssI86
(dp3260
I67
g1918
sI5
g1231
ssI87
(dp3261
I83
g3027
sI67
g1919
sI5
g1232
ssI88
(dp3262
I32
g1797
sI608
(dp3263
sI258
(dp3264
sI67
g1920
sI5
g1233
sI386
(dp3265
sI46
g1843
sI559
(dp3266
sI560
(dp3267
sI273
(dp3268
sI370
(dp3269
sI83
g3028
sI20
g1736
sI280
(dp3270
sI441
(dp3271
ssI89
(dp3272
I83
g3029
sI67
g1921
ssI90
(dp3273
I67
g1922
ssI91
(dp3274
I67
g1923
ssI92
(dp3275
I83
g3031
sI67
g1924
ssI93
(dp3276
I67
g1925
ssI94
(dp3277
I67
g1926
ssI95
(dp3278
I83
g3033
sI67
g1927
sI5
g1234
ssI96
(dp3279
I67
g1928
ssI97
(dp3280
I67
g1929
sI5
g1235
ssI98
(dp3281
I83
g3035
sI67
g1930
sI5
g1236
ssI99
(dp3282
I67
g1931
sI5
g1237
ssI100
(dp3283
I83
g3037
sI67
g1932
ssI101
(dp3284
I321
(dp3285
sI258
(dp3286
sI67
g1933
sI5
g1238
sI386
(dp3287
sI174
(dp3288
sI559
(dp3289
sI370
(dp3290
sI83
g3038
sI20
g1725
sI46
g1846
sI246
(dp3291
sI441
(dp3292
sI127
(dp3293
ssI102
(dp3294
I67
g1934
ssI103
(dp3295
I258
(dp3296
sI67
g1935
sI5
g1239
sI386
(dp3297
sI370
(dp3298
sI83
g3039
sI246
(dp3299
sI441
(dp3300
ssI104
(dp3301
I67
g1936
ssI105
(dp3302
I67
g1937
ssI106
(dp3303
I83
g3041
sI67
g1938
ssI107
(dp3304
I83
g3042
sI67
g1939
sI5
g1240
ssI108
(dp3305
I67
g1940
ssI109
(dp3306
I608
(dp3307
sI129
(dp3308
sI258
(dp3309
sI67
g1941
sI5
g1241
sI72
g2971
sI386
(dp3310
sI559
(dp3311
sI273
(dp3312
sI370
(dp3313
sI83
g3044
sI628
(dp3314
sI280
(dp3315
sI441
(dp3316
sI443
(dp3317
ssI110
(dp3318
I67
g1942
ssI111
(dp3319
I67
g1943
ssI112
(dp3320
I67
g1944
ssI113
(dp3321
I67
g1945
ssI114
(dp3322
I83
g3048
sI67
g1946
ssI115
(dp3323
I67
g1947
ssI116
(dp3324
I67
g1948
ssI117
(dp3325
I83
g3050
sI67
g1949
sI5
g1242
ssI118
(dp3326
I83
g3051
sI67
g1950
ssI119
(dp3327
I83
g3052
sI67
g1951
sI5
g1243
sI386
(dp3328
ssI120
(dp3329
I67
g1952
ssI121
(dp3330
I83
g3054
sI67
g1953
sI559
(dp3331
ssI122
(dp3332
I67
g1954
ssI123
(dp3333
I67
g1955
sI559
(dp3334
ssI124
(dp3335
I67
g1956
ssI125
(dp3336
I83
g3057
sI67
g1957
ssI126
(dp3337
I67
g1958
sI5
g1244
ssI127
(dp3338
I608
(dp3339
sI386
(dp3340
sI67
g1959
sI5
g1245
sI72
g2980
sI174
(dp3341
sI559
(dp3342
sI370
(dp3343
sI83
g3058
sI280
(dp3344
sI441
(dp3345
sI719
(dp3346
sI101
g3293
ssI128
(dp3347
I83
g3059
sI67
g1960
sI5
g1246
sI559
(dp3348
ssI129
(dp3349
I32
g1785
sI258
(dp3350
sI67
g1961
sI5
g1247
sI72
g2969
sI109
g3308
sI386
(dp3351
sI462
(dp3352
sI559
(dp3353
sI273
(dp3354
sI370
(dp3355
sI83
g3060
sI443
(dp3356
ssI130
(dp3357
I83
g3061
sI67
g1962
sI5
g1248
ssI131
(dp3358
I83
g3062
sI67
g1963
sI5
g1249
ssI132
(dp3359
I67
g1964
ssI133
(dp3360
I67
g1965
sI5
g1250
ssI134
(dp3361
I67
g1966
ssI135
(dp3362
I67
g1967
sI5
g1251
ssI136
(dp3363
I67
g1968
sI5
g1252
ssI137
(dp3364
I67
g1969
ssI138
(dp3365
I67
g1970
sI5
g1253
ssI139
(dp3366
I67
g1971
ssI140
(dp3367
I67
g1972
ssI141
(dp3368
I83
g3064
sI67
g1973
ssI142
(dp3369
I67
g1974
ssI143
(dp3370
I83
g3065
sI67
g1975
sI5
g1254
ssI144
(dp3371
I67
g1976
sI5
g1255
ssI145
(dp3372
I67
g1977
ssI146
(dp3373
I67
g1978
ssI147
(dp3374
I83
g3066
sI67
g1979
sI5
g1256
sI559
(dp3375
ssI148
(dp3376
I67
g1980
ssI149
(dp3377
I67
g1981
ssI150
(dp3378
I67
g1982
sI5
g1257
ssI151
(dp3379
I67
g1983
ssI152
(dp3380
I67
g1984
ssI153
(dp3381
I83
g3069
sI67
g1985
sI5
g1258
ssI154
(dp3382
I67
g1986
ssI155
(dp3383
I67
g1987
ssI156
(dp3384
I83
g3071
sI67
g1988
sI386
(dp3385
sI559
(dp3386
ssI157
(dp3387
I83
g3072
sI67
g1989
sI5
g1259
ssI158
(dp3388
I608
(dp3389
sI258
(dp3390
sI67
g1990
sI5
g1260
sI72
g2979
sI386
(dp3391
sI46
g1845
sI559
(dp3392
sI498
(dp3393
sI370
(dp3394
sI83
g3073
sI20
g1739
sI174
(dp3395
sI280
(dp3396
sI25
g1766
sI443
(dp3397
sI719
(dp3398
ssI159
(dp3399
I67
g1991
sI5
g1261
ssI160
(dp3400
I83
g3074
sI67
g1992
ssI161
(dp3401
I67
g1993
sI5
g1262
ssI162
(dp3402
I67
g1994
ssI163
(dp3403
I67
g1995
ssI164
(dp3404
I67
g1996
sI5
g1263
ssI165
(dp3405
I67
g1997
ssI166
(dp3406
I67
g1998
sI5
g1264
ssI167
(dp3407
I83
g3078
sI67
g1999
ssI168
(dp3408
I67
g2000
ssI169
(dp3409
I83
g3080
sI67
g2001
sI5
g1265
sI386
(dp3410
sI559
(dp3411
ssI170
(dp3412
I67
g2002
ssI171
(dp3413
I83
g3082
sI67
g2003
sI5
g1266
ssI172
(dp3414
I67
g2004
ssI173
(dp3415
I67
g2005
ssI174
(dp3416
I2
g1175
sI5
g1267
sI386
(dp3417
sI20
g1733
sI280
(dp3418
sI25
g1762
sI158
g3395
sI32
g1791
sI370
(dp3419
sI46
g1835
sI559
(dp3420
sI441
(dp3421
sI321
(dp3422
sI322
(dp3423
sI67
g2006
sI258
(dp3424
sI719
(dp3425
sI83
g3083
sI101
g3288
sI498
(dp3426
sI246
(dp3427
sI127
g3341
ssI175
(dp3428
I67
g2007
sI5
g1268
ssI176
(dp3429
I83
g3085
sI67
g2008
sI5
g1269
ssI177
(dp3430
I83
g3086
sI67
g2009
sI5
g1270
sI559
(dp3431
ssI178
(dp3432
I67
g2010
sI5
g1271
ssI179
(dp3433
I67
g2011
ssI180
(dp3434
I67
g2012
ssI181
(dp3435
I83
g3087
sI67
g2013
ssI182
(dp3436
I83
g3088
sI67
g2014
ssI183
(dp3437
I83
g3089
sI67
g2015
sI5
g1272
ssI184
(dp3438
I67
g2016
ssI185
(dp3439
I83
g3090
sI67
g2017
sI5
g1273
ssI186
(dp3440
I67
g2018
ssI187
(dp3441
I83
g3091
sI67
g2019
sI5
g1274
ssI188
(dp3442
I67
g2020
sI5
g1275
ssI189
(dp3443
I67
g2021
sI5
g1276
sI559
(dp3444
ssI190
(dp3445
I67
g2022
ssI191
(dp3446
I67
g2023
ssI192
(dp3447
I83
g3093
sI67
g2024
ssI193
(dp3448
I83
g3094
sI67
g2025
ssI194
(dp3449
I83
g3095
sI67
g2026
sI5
g1277
ssI195
(dp3450
I67
g2027
ssI196
(dp3451
I67
g2028
sI5
g1278
ssI197
(dp3452
I67
g2029
sI5
g1279
ssI198
(dp3453
I83
g3098
sI67
g2030
sI5
g1280
ssI199
(dp3454
I67
g2031
sI5
g1281
ssI200
(dp3455
I83
g3099
sI67
g2032
ssI201
(dp3456
I83
g3100
sI67
g2033
sI5
g1282
ssI202
(dp3457
I67
g2034
ssI203
(dp3458
I83
g3102
sI67
g2035
sI5
g1283
sI386
(dp3459
ssI204
(dp3460
I67
g2036
ssI205
(dp3461
I67
g2037
ssI206
(dp3462
I67
g2038
ssI207
(dp3463
I83
g3104
sI67
g2039
sI5
g1284
ssI208
(dp3464
I83
g3105
sI67
g2040
sI5
g1285
ssI209
(dp3465
I67
g2041
ssI210
(dp3466
I83
g3106
sI67
g2042
sI5
g1286
ssI211
(dp3467
I67
g2043
ssI212
(dp3468
I83
g3108
sI67
g2044
sI5
g1287
ssI213
(dp3469
I83
g3109
sI67
g2045
ssI214
(dp3470
I67
g2046
ssI215
(dp3471
I83
g3110
sI67
g2047
sI5
g1288
sI386
(dp3472
ssI216
(dp3473
I67
g2048
sI559
(dp3474
ssI217
(dp3475
I67
g2049
ssI218
(dp3476
I67
g2050
sI5
g1289
ssI219
(dp3477
I67
g2051
ssI220
(dp3478
I67
g2052
ssI221
(dp3479
I67
g2053
ssI222
(dp3480
I67
g2054
ssI223
(dp3481
I67
g2055
sI5
g1290
ssI224
(dp3482
I67
g2056
ssI225
(dp3483
I67
g2057
ssI226
(dp3484
I67
g2058
ssI227
(dp3485
I67
g2059
ssI228
(dp3486
I67
g2060
ssI229
(dp3487
I67
g2061
ssI230
(dp3488
I83
g3116
sI67
g2062
ssI231
(dp3489
I67
g2063
ssI232
(dp3490
I67
g2064
ssI233
(dp3491
I67
g2065
sI5
g1291
ssI234
(dp3492
I67
g2066
sI5
g1292
ssI235
(dp3493
I83
g3119
sI67
g2067
sI5
g1293
ssI236
(dp3494
I386
(dp3495
sI67
g2068
sI5
g1294
ssI237
(dp3496
I67
g2069
sI5
g1295
ssI238
(dp3497
I83
g3121
sI67
g2070
sI5
g1296
ssI239
(dp3498
I67
g2071
ssI240
(dp3499
I67
g2072
ssI241
(dp3500
I67
g2073
sI559
(dp3501
ssI242
(dp3502
I67
g2074
ssI243
(dp3503
I67
g2075
sI5
g1297
ssI244
(dp3504
I83
g3125
sI67
g2076
ssI245
(dp3505
I67
g2077
ssI246
(dp3506
I32
g1796
sI608
(dp3507
sI386
(dp3508
sI67
g2078
sI5
g1298
sI103
g3299
sI498
(dp3509
sI174
g3427
sI559
(dp3510
sI752
(dp3511
sI370
(dp3512
sI83
g3127
sI20
g1734
sI25
g1763
sI280
(dp3513
sI441
(dp3514
sI101
g3291
ssI247
(dp3515
I67
g2079
ssI248
(dp3516
I67
g2080
ssI249
(dp3517
I83
g3129
sI67
g2081
sI5
g1299
ssI250
(dp3518
I67
g2082
ssI251
(dp3519
I83
g3130
sI67
g2083
ssI252
(dp3520
I67
g2084
sI5
g1300
ssI253
(dp3521
I83
g3131
sI67
g2085
sI5
g1301
sI386
(dp3522
ssI254
(dp3523
I67
g2086
ssI255
(dp3524
I67
g2087
ssI256
(dp3525
I67
g2088
sI5
g1302
sI559
(dp3526
ssI257
(dp3527
I67
g2089
ssI258
(dp3528
I129
g3350
sI2
g1171
sI5
g1303
sI386
(dp3529
sI527
(dp3530
sI273
(dp3531
sI20
g1723
sI174
g3424
sI406
(dp3532
sI280
(dp3533
sI25
g1753
sI158
g3390
sI32
g1786
sI429
(dp3534
sI46
g1831
sI559
(dp3535
sI560
(dp3536
sI441
(dp3537
sI443
(dp3538
sI959
(dp3539
sI321
(dp3540
sI67
g2090
sI72
g2970
sI462
(dp3541
sI719
(dp3542
sI83
g3132
sI88
g3264
sI608
(dp3543
sI101
g3286
sI103
g3296
sI109
g3309
sI370
(dp3544
sI890
(dp3545
sI380
(dp3546
ssI259
(dp3547
I67
g2091
ssI260
(dp3548
I67
g2092
ssI261
(dp3549
I83
g3134
sI67
g2093
sI5
g1304
ssI262
(dp3550
I67
g2094
sI5
g1305
ssI263
(dp3551
I67
g2095
ssI264
(dp3552
I67
g2096
sI5
g1306
ssI265
(dp3553
I67
g2097
ssI266
(dp3554
I67
g2098
ssI267
(dp3555
I67
g2099
sI559
(dp3556
ssI268
(dp3557
I67
g2100
sI5
g1307
ssI269
(dp3558
I83
g3137
sI67
g2101
sI5
g1308
ssI270
(dp3559
I67
g2102
ssI271
(dp3560
I67
g2103
sI5
g1309
sI559
(dp3561
ssI272
(dp3562
I67
g2104
ssI273
(dp3563
I32
g1793
sI129
g3354
sI386
(dp3564
sI67
g2105
sI5
g1310
sI321
(dp3565
sI109
g3312
sI258
g3531
sI46
g1838
sI559
(dp3566
sI560
(dp3567
sI370
(dp3568
sI83
g3139
sI628
(dp3569
sI88
g3268
sI608
(dp3570
sI443
(dp3571
sI752
(dp3572
ssI274
(dp3573
I67
g2106
sI5
g1311
ssI275
(dp3574
I67
g2107
ssI276
(dp3575
I67
g2108
ssI277
(dp3576
I67
g2109
ssI278
(dp3577
I83
g3141
sI67
g2110
sI5
g1312
ssI279
(dp3578
I67
g2111
sI5
g1313
ssI280
(dp3579
I32
g1800
sI321
(dp3580
sI258
g3533
sI67
g2112
sI5
g1314
sI109
g3315
sI386
(dp3581
sI46
g1842
sI559
(dp3582
sI370
(dp3583
sI83
g3142
sI174
g3418
sI246
g3513
sI25
g1764
sI88
g3270
sI608
(dp3584
sI158
g3396
sI127
g3344
ssI281
(dp3585
I67
g2113
sI5
g1315
ssI282
(dp3586
I67
g2114
ssI283
(dp3587
I67
g2115
ssI284
(dp3588
I67
g2116
ssI285
(dp3589
I83
g3145
sI67
g2117
sI5
g1316
ssI286
(dp3590
I67
g2118
ssI287
(dp3591
I83
g3146
sI67
g2119
sI5
g1317
ssI288
(dp3592
I67
g2120
ssI289
(dp3593
I83
g3147
sI386
(dp3594
sI67
g2121
sI5
g1318
sI559
(dp3595
ssI290
(dp3596
I83
g3148
sI67
g2122
sI5
g1319
ssI291
(dp3597
I67
g2123
ssI292
(dp3598
I83
g3150
sI67
g2124
ssI293
(dp3599
I83
g3151
sI67
g2125
ssI294
(dp3600
I5
g1320
ssI295
(dp3601
I83
g3152
sI67
g2126
sI5
g1321
ssI296
(dp3602
I67
g2127
sI5
g1322
ssI297
(dp3603
I5
g1323
ssI298
(dp3604
I67
g2128
sI5
g1324
ssI299
(dp3605
I67
g2129
ssI300
(dp3606
I83
g3154
sI67
g2130
ssI301
(dp3607
I67
g2131
ssI302
(dp3608
I83
g3155
sI67
g2132
ssI303
(dp3609
I83
g3156
sI67
g2133
sI5
g1325
ssI304
(dp3610
I67
g2134
ssI305
(dp3611
I83
g3158
sI386
(dp3612
sI67
g2135
sI5
g1326
ssI306
(dp3613
I67
g2136
ssI307
(dp3614
I67
g2137
sI5
g1327
ssI308
(dp3615
I67
g2138
ssI309
(dp3616
I386
(dp3617
sI67
g2139
sI5
g1328
ssI310
(dp3618
I67
g2140
sI5
g1329
ssI311
(dp3619
I67
g2141
ssI312
(dp3620
I67
g2142
ssI313
(dp3621
I386
(dp3622
sI67
g2143
sI5
g1330
ssI314
(dp3623
I67
g2144
sI5
g1331
ssI315
(dp3624
I67
g2145
ssI316
(dp3625
I83
g3161
sI67
g2146
sI5
g1332
ssI317
(dp3626
I67
g2147
sI5
g1333
ssI318
(dp3627
I83
g3163
sI67
g2148
ssI319
(dp3628
I67
g2149
sI5
g1334
ssI320
(dp3629
I67
g2150
ssI321
(dp3630
I32
g1788
sI608
(dp3631
sI386
(dp3632
sI67
g2151
sI5
g1335
sI258
g3540
sI174
g3422
sI559
(dp3633
sI273
g3565
sI370
(dp3634
sI83
g3164
sI20
g1722
sI280
g3580
sI441
(dp3635
sI101
g3285
ssI322
(dp3636
I386
(dp3637
sI67
g2152
sI5
g1336
sI46
g1834
sI559
(dp3638
sI83
g3165
sI20
g1728
sI174
g3423
sI441
(dp3639
ssI323
(dp3640
I67
g2153
ssI324
(dp3641
I67
g2154
sI5
g1337
ssI325
(dp3642
I83
g3166
sI67
g2155
sI5
g1338
ssI326
(dp3643
I67
g2156
sI5
g1339
ssI327
(dp3644
I67
g2157
ssI328
(dp3645
I67
g2158
ssI329
(dp3646
I67
g2159
ssI330
(dp3647
I67
g2160
ssI331
(dp3648
I67
g2161
ssI332
(dp3649
I67
g2162
ssI333
(dp3650
I67
g2163
ssI334
(dp3651
I83
g3167
sI67
g2164
ssI335
(dp3652
I67
g2165
ssI336
(dp3653
I67
g2166
ssI337
(dp3654
I67
g2167
ssI338
(dp3655
I67
g2168
sI5
g1340
sI559
(dp3656
ssI339
(dp3657
I67
g2169
sI5
g1341
ssI340
(dp3658
I83
g3170
sI67
g2170
sI5
g1342
ssI341
(dp3659
I67
g2171
sI559
(dp3660
ssI342
(dp3661
I67
g2172
ssI343
(dp3662
I67
g2173
sI5
g1343
ssI344
(dp3663
I67
g2174
sI5
g1344
ssI345
(dp3664
I67
g2175
ssI346
(dp3665
I67
g2176
ssI347
(dp3666
I67
g2177
ssI348
(dp3667
I67
g2178
ssI349
(dp3668
I83
g3172
sI67
g2179
sI386
(dp3669
ssI350
(dp3670
I83
g3173
sI67
g2180
sI5
g1345
ssI351
(dp3671
I67
g2181
ssI352
(dp3672
I67
g2182
ssI353
(dp3673
I67
g2183
sI5
g1346
ssI354
(dp3674
I67
g2184
ssI355
(dp3675
I83
g3175
sI67
g2185
sI559
(dp3676
ssI356
(dp3677
I67
g2186
sI5
g1347
ssI357
(dp3678
I67
g2187
ssI358
(dp3679
I67
g2188
sI5
g1348
ssI359
(dp3680
I67
g2189
ssI360
(dp3681
I67
g2190
ssI361
(dp3682
I67
g2191
ssI362
(dp3683
I67
g2192
ssI363
(dp3684
I67
g2193
ssI364
(dp3685
I67
g2194
ssI365
(dp3686
I67
g2195
ssI366
(dp3687
I67
g2196
ssI367
(dp3688
I83
g3183
sI67
g2197
sI5
g1349
sI559
(dp3689
ssI368
(dp3690
I67
g2198
ssI369
(dp3691
I67
g2199
ssI370
(dp3692
I129
g3355
sI2
g1177
sI5
g1350
sI258
g3544
sI273
g3568
sI20
g1731
sI174
g3419
sI280
g3583
sI25
g1760
sI158
g3394
sI32
g1794
sI682
(dp3693
sI46
g1839
sI559
(dp3694
sI560
(dp3695
sI441
(dp3696
sI321
g3634
sI67
g2200
sI72
g2974
sI386
(dp3697
sI719
(dp3698
sI83
g3186
sI88
g3269
sI608
(dp3699
sI101
g3290
sI103
g3298
sI872
(dp3700
sI109
g3313
sI625
(dp3701
sI498
(dp3702
sI246
g3512
sI377
(dp3703
sI1020
(dp3704
sI127
g3343
ssI371
(dp3705
I67
g2201
ssI372
(dp3706
I67
g2202
ssI373
(dp3707
I67
g2203
sI5
g1351
ssI374
(dp3708
I67
g2204
ssI375
(dp3709
I67
g2205
ssI376
(dp3710
I67
g2206
ssI377
(dp3711
I83
g3190
sI370
g3703
sI67
g2207
sI5
g1352
sI386
(dp3712
ssI378
(dp3713
I5
g1353
ssI379
(dp3714
I83
g3192
sI67
g2208
ssI380
(dp3715
I83
g3193
sI258
g3546
sI67
g2209
sI5
g1354
ssI381
(dp3716
I67
g2210
ssI382
(dp3717
I83
g3194
sI67
g2211
sI5
g1355
ssI383
(dp3718
I67
g2212
ssI384
(dp3719
I67
g2213
ssI385
(dp3720
I67
g2214
ssI386
(dp3721
I2
g1174
sI1027
(dp3722
sI5
g1356
sI519
(dp3723
sI1035
(dp3724
sI20
g1726
sI25
g1755
sI32
g1790
sI1058
(dp3725
sI46
g1833
sI559
(dp3726
sI48
g1851
sI567
(dp3727
sI1088
(dp3728
sI67
g2215
sI70
g2966
sI72
g2972
sI590
(dp3729
sI1107
(dp3730
sI598
(dp3731
sI88
g3265
sI608
(dp3732
sI612
(dp3733
sI101
g3287
sI103
g3297
sI109
g3310
sI119
g3328
sI127
g3340
sI129
g3351
sI644
(dp3734
sI647
(dp3735
sI560
(dp3736
sI156
g3385
sI158
g3391
sI169
g3410
sI682
(dp3737
sI174
g3417
sI692
(dp3738
sI700
(dp3739
sI704
(dp3740
sI705
(dp3741
sI707
(dp3742
sI203
g3459
sI719
(dp3743
sI723
(dp3744
sI215
g3472
sI743
(dp3745
sI236
g3495
sI752
(dp3746
sI756
(dp3747
sI246
g3508
sI253
g3522
sI769
(dp3748
sI258
g3529
sI772
(dp3749
sI784
(dp3750
sI273
g3564
sI790
(dp3751
sI280
g3581
sI793
(dp3752
sI798
(dp3753
sI289
g3594
sI305
g3612
sI309
g3617
sI313
g3622
sI829
(dp3754
sI321
g3632
sI322
g3637
sI349
g3669
sI866
(dp3755
sI872
(dp3756
sI370
g3697
sI377
g3712
sI897
(dp3757
sI429
(dp3758
sI942
(dp3759
sI432
(dp3760
sI951
(dp3761
sI441
(dp3762
sI443
(dp3763
sI959
(dp3764
sI960
(dp3765
sI83
g3196
sI462
(dp3766
sI488
(dp3767
sI508
(dp3768
sI498
(dp3769
sI499
(dp3770
sI506
(dp3771
sI1020
(dp3772
sI1023
(dp3773
ssI387
(dp3774
I83
g3197
sI67
g2216
sI5
g1357
ssI388
(dp3775
I67
g2217
sI5
g1358
ssI389
(dp3776
I83
g3198
sI67
g2218
ssI390
(dp3777
I67
g2219
ssI391
(dp3778
I67
g2220
ssI392
(dp3779
I67
g2221
sI5
g1359
ssI393
(dp3780
I83
g3200
sI67
g2222
sI5
g1360
ssI394
(dp3781
I67
g2223
sI5
g1361
ssI395
(dp3782
I67
g2224
sI5
g1362
ssI396
(dp3783
I67
g2225
ssI397
(dp3784
I67
g2226
ssI398
(dp3785
I67
g2227
ssI399
(dp3786
I67
g2228
ssI400
(dp3787
I67
g2229
ssI401
(dp3788
I67
g2230
ssI402
(dp3789
I67
g2231
sI5
g1363
ssI403
(dp3790
I67
g2232
sI5
g1364
ssI404
(dp3791
I67
g2233
ssI405
(dp3792
I67
g2234
ssI406
(dp3793
I83
g3205
sI258
g3532
sI67
g2235
sI5
g1365
sI559
(dp3794
ssI407
(dp3795
I67
g2236
ssI408
(dp3796
I67
g2237
ssI409
(dp3797
I67
g2238
sI5
g1366
ssI410
(dp3798
I83
g3207
sI67
g2239
sI5
g1367
sI559
(dp3799
ssI411
(dp3800
I83
g3208
sI67
g2240
ssI412
(dp3801
I67
g2241
sI5
g1368
ssI413
(dp3802
I67
g2242
ssI414
(dp3803
I67
g2243
sI5
g1369
ssI415
(dp3804
I83
g3209
sI67
g2244
sI5
g1370
ssI416
(dp3805
I67
g2245
ssI417
(dp3806
I83
g3210
sI67
g2246
ssI418
(dp3807
I67
g2247
ssI419
(dp3808
I67
g2248
sI5
g1371
ssI420
(dp3809
I67
g2249
ssI421
(dp3810
I83
g3212
sI67
g2250
sI5
g1372
ssI422
(dp3811
I83
g3213
sI67
g2251
sI5
g1373
sI559
(dp3812
ssI423
(dp3813
I83
g3214
sI67
g2252
sI5
g1374
ssI424
(dp3814
I67
g2253
ssI425
(dp3815
I67
g2254
ssI426
(dp3816
I67
g2255
sI5
g1375
ssI427
(dp3817
I83
g3215
sI67
g2256
ssI428
(dp3818
I83
g3216
sI67
g2257
ssI429
(dp3819
I83
g3217
sI258
g3534
sI67
g2258
sI386
g3758
sI5
g1376
ssI430
(dp3820
I83
g3218
sI67
g2259
sI5
g1377
ssI431
(dp3821
I67
g2260
ssI432
(dp3822
I386
g3760
sI67
g2261
sI5
g1378
ssI433
(dp3823
I67
g2262
ssI434
(dp3824
I83
g3219
sI67
g2263
sI5
g1379
ssI435
(dp3825
I67
g2264
ssI436
(dp3826
I67
g2265
ssI437
(dp3827
I67
g2266
ssI438
(dp3828
I67
g2267
ssI439
(dp3829
I67
g2268
ssI440
(dp3830
I67
g2269
sI5
g1380
ssI441
(dp3831
I258
g3537
sI5
g1381
sI386
g3762
sI20
g1737
sI174
g3421
sI32
g1798
sI46
g1830
sI559
(dp3832
sI321
g3635
sI322
g3639
sI67
g2270
sI72
g2977
sI719
(dp3833
sI83
g3222
sI88
g3271
sI608
(dp3834
sI101
g3292
sI103
g3300
sI109
g3316
sI370
g3696
sI246
g3514
sI127
g3345
ssI442
(dp3835
I67
g2271
sI5
g1382
ssI443
(dp3836
I608
(dp3837
sI129
g3356
sI258
g3538
sI67
g2272
sI5
g1383
sI872
(dp3838
sI109
g3317
sI386
g3763
sI559
(dp3839
sI560
(dp3840
sI273
g3571
sI83
g3224
sI20
g1738
sI752
(dp3841
sI158
g3397
ssI444
(dp3842
I67
g2273
ssI445
(dp3843
I83
g3225
sI67
g2274
ssI446
(dp3844
I67
g2275
sI5
g1384
ssI447
(dp3845
I83
g3227
sI67
g2276
sI5
g1385
ssI448
(dp3846
I67
g2277
sI5
g1386
ssI449
(dp3847
I67
g2278
ssI450
(dp3848
I83
g3229
sI67
g2279
sI5
g1387
ssI451
(dp3849
I67
g2280
ssI452
(dp3850
I67
g2281
ssI453
(dp3851
I83
g3230
sI67
g2282
ssI454
(dp3852
I67
g2283
sI5
g1388
ssI455
(dp3853
I83
g3232
sI67
g2284
ssI456
(dp3854
I67
g2285
ssI457
(dp3855
I67
g2286
ssI458
(dp3856
I83
g3234
sI67
g2287
sI5
g1389
ssI459
(dp3857
I67
g2288
ssI460
(dp3858
I67
g2289
ssI461
(dp3859
I67
g2290
ssI462
(dp3860
I129
g3352
sI258
g3541
sI67
g2291
sI5
g1390
sI386
g3766
sI559
(dp3861
sI83
g3235
ssI463
(dp3862
I67
g2292
ssI464
(dp3863
I67
g2293
sI5
g1391
ssI465
(dp3864
I67
g2294
ssI466
(dp3865
I83
g3237
sI67
g2295
sI5
g1392
ssI467
(dp3866
I67
g2296
ssI468
(dp3867
I83
g3238
sI67
g2297
ssI469
(dp3868
I5
g1393
ssI470
(dp3869
I67
g2298
sI5
g1394
ssI471
(dp3870
I83
g3239
sI67
g2299
ssI472
(dp3871
I67
g2300
ssI473
(dp3872
I67
g2301
sI5
g1395
ssI474
(dp3873
I83
g3240
sI67
g2302
sI5
g1396
ssI475
(dp3874
I67
g2303
ssI476
(dp3875
I67
g2304
ssI477
(dp3876
I83
g3241
sI67
g2305
sI5
g1397
ssI478
(dp3877
I67
g2306
sI5
g1398
ssI479
(dp3878
I83
g3242
sI67
g2307
sI5
g1399
ssI480
(dp3879
I67
g2308
sI5
g1400
ssI481
(dp3880
I83
g3243
sI67
g2309
sI5
g1401
ssI482
(dp3881
I67
g2310
ssI483
(dp3882
I83
g3244
sI67
g2311
sI5
g1402
ssI484
(dp3883
I67
g2312
ssI485
(dp3884
I83
g3245
sI67
g2313
sI5
g1403
ssI486
(dp3885
I83
g3246
sI67
g2314
ssI487
(dp3886
I67
g2315
sI5
g1404
ssI488
(dp3887
I386
g3767
sI67
g2316
sI5
g1405
ssI489
(dp3888
I67
g2317
ssI490
(dp3889
I67
g2318
ssI491
(dp3890
I67
g2319
ssI492
(dp3891
I67
g2320
ssI493
(dp3892
I67
g2321
sI5
g1406
ssI494
(dp3893
I67
g2322
sI5
g1407
sI559
(dp3894
ssI495
(dp3895
I83
g3250
sI67
g2323
ssI496
(dp3896
I83
g3251
sI67
g2324
sI5
g1408
ssI497
(dp3897
I67
g2325
ssI498
(dp3898
I32
g1792
sI608
(dp3899
sI386
g3769
sI67
g2326
sI5
g1409
sI46
g1841
sI559
(dp3900
sI370
g3702
sI83
g3252
sI174
g3426
sI246
g3509
sI25
g1759
sI158
g3393
ssI499
(dp3901
I386
g3770
sI67
g2327
ssI500
(dp3902
I67
g2328
sI5
g1410
ssI501
(dp3903
I67
g2329
sI5
g1411
ssI502
(dp3904
I67
g2330
ssI503
(dp3905
I83
g3254
sI67
g2331
sI5
g1412
ssI504
(dp3906
I67
g2332
sI5
g1413
ssI505
(dp3907
I67
g2333
sI5
g1414
ssI506
(dp3908
I386
g3771
sI67
g2334
sI5
g1415
sI559
(dp3909
ssI507
(dp3910
I67
g2335
sI5
g1416
ssI508
(dp3911
I83
g3256
sI386
g3768
sI67
g2336
sI5
g1417
sI559
(dp3912
ssI509
(dp3913
I83
g3257
sI67
g2337
sI5
g1418
ssI510
(dp3914
I67
g2338
sI5
g1419
ssI511
(dp3915
I67
g2339
ssI512
(dp3916
I67
g2340
ssI513
(dp3917
I83
g2996
sI67
g2341
sI5
g1420
ssI514
(dp3918
I67
g2342
ssI515
(dp3919
I67
g2343
ssI516
(dp3920
I83
g2994
sI67
g2344
sI5
g1421
ssI517
(dp3921
I67
g2345
ssI518
(dp3922
I83
g2995
sI5
g1422
ssI519
(dp3923
I386
g3723
sI67
g2346
sI559
(dp3924
ssI520
(dp3925
I83
g2997
sI67
g2347
sI5
g1423
ssI521
(dp3926
I67
g2348
ssI522
(dp3927
I67
g2349
ssI523
(dp3928
I83
g2999
sI67
g2350
sI5
g1424
ssI524
(dp3929
I67
g2351
sI5
g1425
ssI525
(dp3930
I67
g2352
ssI526
(dp3931
I67
g2353
ssI527
(dp3932
I258
g3530
sI67
g2354
sI5
g1426
ssI528
(dp3933
I67
g2355
ssI529
(dp3934
I67
g2356
ssI530
(dp3935
I67
g2357
ssI531
(dp3936
I67
g2358
ssI532
(dp3937
I83
g3001
sI67
g2359
sI5
g1427
ssI533
(dp3938
I67
g2360
sI5
g1428
ssI534
(dp3939
I67
g2361
ssI535
(dp3940
I67
g2362
ssI536
(dp3941
I67
g2363
ssI537
(dp3942
I5
g1429
ssI538
(dp3943
I5
g1430
ssI539
(dp3944
I67
g2364
sI5
g1431
ssI540
(dp3945
I67
g2365
ssI541
(dp3946
I67
g2366
ssI542
(dp3947
I67
g2367
sI5
g1432
ssI543
(dp3948
I67
g2368
ssI544
(dp3949
I67
g2369
ssI545
(dp3950
I67
g2370
ssI546
(dp3951
I83
g3007
sI67
g2371
sI5
g1433
ssI547
(dp3952
I83
g3008
sI67
g2372
ssI548
(dp3953
I67
g2373
ssI549
(dp3954
I67
g2374
sI5
g1434
ssI550
(dp3955
I67
g2375
sI5
g1435
ssI551
(dp3956
I67
g2376
ssI552
(dp3957
I67
g2377
ssI553
(dp3958
I67
g2378
sI5
g1436
ssI554
(dp3959
I83
g3009
sI67
g2379
sI5
g1437
ssI555
(dp3960
I67
g2380
sI5
g1438
ssI556
(dp3961
I67
g2381
ssI557
(dp3962
I67
g2382
ssI558
(dp3963
I83
g3010
sI67
g2383
sI5
g1439
ssI559
(dp3964
I2
g1176
sI5
g1440
sI1030
(dp3965
sI519
g3924
sI10
g1697
sI20
g1730
sI25
g1757
sI1126
(dp3966
sI32
g1799
sI42
g1821
sI46
g1836
sI560
(dp3967
sI561
(dp3968
sI566
(dp3969
sI58
g1878
sI1088
(dp3970
sI1120
(dp3971
sI67
g2384
sI72
g2973
sI74
g2983
sI83
g3011
sI599
(dp3972
sI88
g3266
sI608
(dp3973
sI612
(dp3974
sI101
g3289
sI614
(dp3975
sI109
g3311
sI1134
(dp3976
sI625
(dp3977
sI121
g3331
sI123
g3334
sI636
(dp3978
sI127
g3342
sI128
g3348
sI129
g3353
sI147
g3375
sI156
g3386
sI158
g3392
sI676
(dp3979
sI867
(dp3980
sI169
g3411
sI174
g3420
sI177
g3431
sI189
g3444
sI713
(dp3981
sI719
(dp3982
sI722
(dp3983
sI216
g3474
sI737
(dp3984
sI743
(dp3985
sI744
(dp3986
sI752
(dp3987
sI753
(dp3988
sI246
g3510
sI256
g3526
sI258
g3535
sI641
(dp3989
sI776
(dp3990
sI267
g3556
sI271
g3561
sI273
g3566
sI786
(dp3991
sI787
(dp3992
sI280
g3582
sI793
(dp3993
sI798
(dp3994
sI289
g3595
sI802
(dp3995
sI803
(dp3996
sI817
(dp3997
sI321
g3633
sI322
g3638
sI338
g3656
sI341
g3660
sI859
(dp3998
sI570
(dp3999
sI355
g3676
sI871
(dp4000
sI872
(dp4001
sI367
g3689
sI370
g3694
sI890
(dp4002
sI897
(dp4003
sI386
g3726
sI907
(dp4004
sI406
g3794
sI920
(dp4005
sI410
g3799
sI422
g3812
sI241
g3501
sI942
(dp4006
sI441
g3832
sI443
g3839
sI462
g3861
sI978
(dp4007
sI985
(dp4008
sI1020
(dp4009
sI494
g3894
sI498
g3900
sI1016
(dp4010
sI506
g3909
sI1019
(dp4011
sI508
g3912
ssI560
(dp4012
I258
g3536
sI67
g2385
sI5
g1441
sI386
g3736
sI46
g1837
sI559
g3967
sI273
g3567
sI370
g3695
sI83
g3012
sI88
g3267
sI443
g3840
ssI561
(dp4013
I559
g3968
ssI562
(dp4014
I67
g2386
ssI563
(dp4015
I67
g2387
sI5
g1442
ssI564
(dp4016
I83
g3013
sI67
g2388
ssI565
(dp4017
I67
g2389
ssI566
(dp4018
I67
g2390
sI5
g1443
sI559
g3969
ssI567
(dp4019
I386
g3727
sI67
g2391
sI5
g1444
ssI568
(dp4020
I67
g2392
sI5
g1445
ssI569
(dp4021
I67
g2393
ssI570
(dp4022
I67
g2394
sI5
g1446
sI559
g3999
ssI571
(dp4023
I67
g2395
ssI572
(dp4024
I83
g3017
sI67
g2396
sI5
g1447
ssI573
(dp4025
I83
g3018
sI67
g2397
sI5
g1448
ssI574
(dp4026
I67
g2398
ssI575
(dp4027
I67
g2399
sI5
g1449
ssI576
(dp4028
I67
g2400
sI5
g1450
ssI577
(dp4029
I67
g2401
ssI578
(dp4030
I67
g2402
ssI579
(dp4031
I67
g2403
sI5
g1451
ssI580
(dp4032
I67
g2404
sI5
g1452
ssI581
(dp4033
I67
g2405
ssI582
(dp4034
I67
g2406
ssI583
(dp4035
I67
g2407
ssI584
(dp4036
I67
g2408
ssI585
(dp4037
I67
g2409
ssI586
(dp4038
I67
g2410
ssI587
(dp4039
I67
g2411
ssI588
(dp4040
I83
g3022
sI67
g2412
ssI589
(dp4041
I67
g2413
ssI590
(dp4042
I83
g3023
sI386
g3729
sI67
g2414
sI5
g1453
ssI591
(dp4043
I67
g2415
ssI592
(dp4044
I67
g2416
ssI593
(dp4045
I83
g3024
sI67
g2417
sI5
g1454
ssI594
(dp4046
I67
g2418
sI5
g1455
ssI595
(dp4047
I67
g2419
ssI596
(dp4048
I67
g2420
ssI597
(dp4049
I67
g2421
ssI598
(dp4050
I83
g3026
sI386
g3731
sI67
g2422
sI5
g1456
ssI599
(dp4051
I67
g2423
sI5
g1457
sI559
g3972
ssI600
(dp4052
I67
g2424
ssI601
(dp4053
I83
g3003
sI67
g2425
sI5
g1458
ssI602
(dp4054
I67
g2426
ssI603
(dp4055
I67
g2427
ssI604
(dp4056
I67
g2428
ssI605
(dp4057
I67
g2429
sI5
g1459
ssI606
(dp4058
I67
g2430
sI5
g1460
ssI607
(dp4059
I67
g2431
ssI608
(dp4060
I258
g3543
sI5
g1461
sI386
g3732
sI273
g3570
sI20
g1735
sI280
g3584
sI25
g1752
sI158
g3389
sI32
g1784
sI498
g3899
sI46
g1829
sI559
g3973
sI441
g3834
sI443
g3837
sI321
g3631
sI67
g2432
sI72
g2976
sI719
(dp4061
sI83
g3034
sI88
g3263
sI872
(dp4062
sI109
g3307
sI370
g3699
sI246
g3507
sI127
g3339
ssI609
(dp4063
I67
g2433
sI5
g1462
ssI610
(dp4064
I67
g2434
ssI611
(dp4065
I67
g2435
ssI612
(dp4066
I83
g3236
sI386
g3733
sI67
g2436
sI5
g1463
sI559
g3974
ssI613
(dp4067
I67
g2437
ssI614
(dp4068
I67
g2438
sI5
g1464
sI559
g3975
ssI615
(dp4069
I67
g2439
ssI616
(dp4070
I67
g2440
sI5
g1465
ssI617
(dp4071
I67
g2441
sI5
g1466
ssI618
(dp4072
I67
g2442
ssI619
(dp4073
I83
g3076
sI67
g2443
ssI620
(dp4074
I83
g3043
sI67
g2444
sI5
g1467
ssI621
(dp4075
I67
g2445
ssI622
(dp4076
I67
g2446
ssI623
(dp4077
I67
g2447
ssI624
(dp4078
I67
g2448
sI5
g1468
ssI625
(dp4079
I83
g3047
sI370
g3701
sI67
g2449
sI5
g1469
sI559
g3977
ssI626
(dp4080
I67
g2450
ssI627
(dp4081
I5
g1470
ssI628
(dp4082
I273
g3569
sI67
g2451
sI5
g1471
sI109
g3314
ssI629
(dp4083
I67
g2452
ssI630
(dp4084
I67
g2453
sI5
g1472
ssI631
(dp4085
I83
g3015
sI67
g2454
sI5
g1473
ssI632
(dp4086
I83
g3053
sI67
g2455
sI5
g1474
ssI633
(dp4087
I67
g2456
ssI634
(dp4088
I67
g2457
ssI635
(dp4089
I67
g2458
ssI636
(dp4090
I83
g3056
sI67
g2459
sI5
g1475
sI559
g3978
ssI637
(dp4091
I83
g3122
sI67
g2460
sI5
g1476
ssI638
(dp4092
I67
g2461
ssI639
(dp4093
I83
g3118
sI67
g2462
sI5
g1477
ssI640
(dp4094
I67
g2463
ssI641
(dp4095
I83
g3135
sI67
g2464
sI5
g1478
sI559
g3989
ssI642
(dp4096
I67
g2465
sI5
g1479
ssI643
(dp4097
I67
g2466
ssI644
(dp4098
I386
g3734
sI67
g2467
sI5
g1480
ssI645
(dp4099
I67
g2468
sI5
g1481
ssI646
(dp4100
I67
g2469
ssI647
(dp4101
I386
g3735
sI67
g2470
sI5
g1482
ssI648
(dp4102
I83
g3063
sI67
g2471
sI5
g1483
ssI649
(dp4103
I67
g2472
sI5
g1484
ssI650
(dp4104
I67
g2473
ssI651
(dp4105
I67
g2474
sI5
g1485
ssI652
(dp4106
I67
g2475
ssI653
(dp4107
I67
g2476
ssI654
(dp4108
I67
g2477
ssI655
(dp4109
I67
g2478
sI5
g1486
ssI656
(dp4110
I67
g2479
ssI657
(dp4111
I67
g2480
ssI658
(dp4112
I67
g2481
ssI659
(dp4113
I67
g2482
ssI660
(dp4114
I67
g2483
ssI661
(dp4115
I83
g3067
sI67
g2484
sI5
g1487
ssI662
(dp4116
I67
g2485
ssI663
(dp4117
I67
g2486
sI5
g1488
ssI664
(dp4118
I83
g3068
sI67
g2487
sI5
g1489
ssI665
(dp4119
I67
g2488
sI5
g1490
ssI666
(dp4120
I67
g2489
sI5
g1491
ssI667
(dp4121
I67
g2490
sI5
g1492
ssI668
(dp4122
I67
g2491
ssI669
(dp4123
I67
g2492
ssI670
(dp4124
I83
g3220
sI67
g2493
sI5
g1493
ssI671
(dp4125
I67
g2494
sI5
g1494
ssI672
(dp4126
I67
g2495
ssI673
(dp4127
I67
g2496
ssI674
(dp4128
I83
g3075
sI67
g2497
ssI675
(dp4129
I67
g2498
ssI676
(dp4130
I83
g3077
sI67
g2499
sI5
g1495
sI559
g3979
ssI677
(dp4131
I67
g2500
ssI678
(dp4132
I67
g2501
sI5
g1496
ssI679
(dp4133
I67
g2502
ssI680
(dp4134
I83
g3079
sI67
g2503
sI5
g1497
ssI681
(dp4135
I67
g2504
ssI682
(dp4136
I83
g3081
sI370
g3693
sI67
g2505
sI386
g3737
sI5
g1498
ssI683
(dp4137
I67
g2506
ssI684
(dp4138
I67
g2507
sI5
g1499
ssI685
(dp4139
I67
g2508
ssI686
(dp4140
I67
g2509
ssI687
(dp4141
I67
g2510
ssI688
(dp4142
I67
g2511
sI5
g1500
ssI689
(dp4143
I67
g2512
sI5
g1501
ssI690
(dp4144
I67
g2513
ssI691
(dp4145
I67
g2514
ssI692
(dp4146
I386
g3738
sI67
g2515
ssI693
(dp4147
I67
g2516
sI5
g1502
ssI694
(dp4148
I67
g2517
sI5
g1503
ssI695
(dp4149
I67
g2518
ssI696
(dp4150
I67
g2519
sI5
g1504
ssI697
(dp4151
I83
g3233
sI67
g2520
ssI698
(dp4152
I67
g2521
sI5
g1505
ssI699
(dp4153
I83
g3036
sI67
g2522
sI5
g1506
ssI700
(dp4154
I83
g3092
sI386
g3739
sI67
g2523
sI5
g1507
ssI701
(dp4155
I67
g2524
ssI702
(dp4156
I67
g2525
sI5
g1508
ssI703
(dp4157
I5
g1509
ssI704
(dp4158
I83
g3021
sI386
g3740
sI67
g2526
sI5
g1510
ssI705
(dp4159
I386
g3741
sI67
g2527
sI5
g1511
ssI706
(dp4160
I67
g2528
ssI707
(dp4161
I83
g3096
sI386
g3742
sI67
g2529
sI5
g1512
ssI708
(dp4162
I83
g3097
sI67
g2530
sI5
g1513
ssI709
(dp4163
I67
g2531
sI5
g1514
ssI710
(dp4164
I67
g2532
ssI711
(dp4165
I67
g2533
ssI712
(dp4166
I67
g2534
ssI713
(dp4167
I67
g2535
sI5
g1515
sI559
g3981
ssI714
(dp4168
I83
g3101
sI67
g2536
ssI715
(dp4169
I67
g2537
ssI716
(dp4170
I67
g2538
ssI717
(dp4171
I67
g2539
ssI718
(dp4172
I67
g2540
sI5
g1516
ssI719
(dp4173
I608
g4061
sI258
g3542
sI67
g2541
sI5
g1517
sI72
g2978
sI386
g3743
sI174
g3425
sI559
g3982
sI752
(dp4174
sI370
g3698
sI83
g3112
sI441
g3833
sI25
g1765
sI158
g3398
sI127
g3346
ssI720
(dp4175
I67
g2542
sI5
g1518
ssI721
(dp4176
I67
g2543
ssI722
(dp4177
I83
g3120
sI67
g2544
sI559
g3983
ssI723
(dp4178
I83
g3107
sI386
g3744
sI67
g2545
ssI724
(dp4179
I67
g2546
ssI725
(dp4180
I67
g2547
ssI726
(dp4181
I67
g2548
sI5
g1519
ssI727
(dp4182
I67
g2549
ssI728
(dp4183
I83
g3111
sI67
g2550
ssI729
(dp4184
I67
g2551
ssI730
(dp4185
I67
g2552
ssI731
(dp4186
I67
g2553
ssI732
(dp4187
I67
g2554
ssI733
(dp4188
I67
g2555
ssI734
(dp4189
I67
g2556
ssI735
(dp4190
I67
g2557
ssI736
(dp4191
I67
g2558
sI5
g1520
ssI737
(dp4192
I67
g2559
sI5
g1521
sI559
g3984
ssI738
(dp4193
I83
g3113
sI67
g2560
sI5
g1522
ssI739
(dp4194
I67
g2561
sI5
g1523
ssI740
(dp4195
I67
g2562
ssI741
(dp4196
I67
g2563
ssI742
(dp4197
I83
g3176
sI67
g2564
ssI743
(dp4198
I83
g3117
sI386
g3745
sI67
g2565
sI5
g1524
sI559
g3985
ssI744
(dp4199
I67
g2566
sI5
g1525
sI559
g3986
ssI745
(dp4200
I67
g2567
ssI746
(dp4201
I67
g2568
ssI747
(dp4202
I67
g2569
ssI748
(dp4203
I67
g2570
sI5
g1526
ssI749
(dp4204
I67
g2571
sI5
g1527
ssI750
(dp4205
I67
g2572
ssI751
(dp4206
I67
g2573
ssI752
(dp4207
I386
g3746
sI67
g2574
sI5
g1528
sI46
g1844
sI559
g3987
sI273
g3572
sI83
g3123
sI246
g3511
sI25
g1758
sI443
g3841
sI719
g4174
ssI753
(dp4208
I67
g2575
sI5
g1529
sI559
g3988
ssI754
(dp4209
I83
g3124
sI67
g2576
sI5
g1530
ssI755
(dp4210
I67
g2577
ssI756
(dp4211
I386
g3747
sI67
g2578
sI5
g1531
ssI757
(dp4212
I83
g3126
sI67
g2579
ssI758
(dp4213
I5
g1532
ssI759
(dp4214
I83
g3128
sI67
g2580
sI5
g1533
ssI760
(dp4215
I67
g2581
sI5
g1534
ssI761
(dp4216
I67
g2582
ssI762
(dp4217
I67
g2583
ssI763
(dp4218
I67
g2584
ssI764
(dp4219
I67
g2585
sI5
g1535
ssI765
(dp4220
I67
g2586
sI5
g1536
ssI766
(dp4221
I67
g2587
sI5
g1537
ssI767
(dp4222
I5
g1538
ssI768
(dp4223
I67
g2588
ssI769
(dp4224
I386
g3748
sI67
g2589
sI5
g1539
ssI770
(dp4225
I67
g2590
ssI771
(dp4226
I67
g2591
ssI772
(dp4227
I83
g3133
sI386
g3749
sI67
g2592
sI5
g1540
ssI773
(dp4228
I83
g3006
sI67
g2593
ssI774
(dp4229
I67
g2594
ssI775
(dp4230
I67
g2595
ssI776
(dp4231
I83
g3136
sI67
g2596
sI5
g1541
sI559
g3990
ssI777
(dp4232
I67
g2597
ssI778
(dp4233
I67
g2598
ssI779
(dp4234
I67
g2599
ssI780
(dp4235
I67
g2600
ssI781
(dp4236
I67
g2601
sI5
g1542
ssI782
(dp4237
I67
g2602
ssI783
(dp4238
I83
g3138
sI67
g2603
sI5
g1543
ssI784
(dp4239
I386
g3750
sI67
g2604
ssI785
(dp4240
I67
g2605
ssI786
(dp4241
I83
g3140
sI67
g2606
sI5
g1544
sI559
g3991
ssI787
(dp4242
I67
g2607
sI5
g1545
sI559
g3992
ssI788
(dp4243
I67
g2608
ssI789
(dp4244
I67
g2609
ssI790
(dp4245
I386
g3751
sI67
g2610
sI5
g1546
ssI791
(dp4246
I67
g2611
ssI792
(dp4247
I67
g2612
ssI793
(dp4248
I83
g3143
sI386
g3752
sI67
g2613
sI559
g3993
ssI794
(dp4249
I67
g2614
ssI795
(dp4250
I67
g2615
ssI796
(dp4251
I67
g2616
ssI797
(dp4252
I83
g3084
sI67
g2617
sI5
g1547
ssI798
(dp4253
I386
g3753
sI67
g2618
sI5
g1548
sI559
g3994
ssI799
(dp4254
I83
g3228
sI67
g2619
ssI800
(dp4255
I67
g2620
ssI801
(dp4256
I67
g2621
ssI802
(dp4257
I83
g3103
sI67
g2622
sI5
g1549
sI559
g3995
ssI803
(dp4258
I83
g3149
sI67
g2623
sI5
g1550
sI559
g3996
ssI804
(dp4259
I67
g2624
sI5
g1551
ssI805
(dp4260
I67
g2625
sI5
g1552
ssI806
(dp4261
I67
g2626
sI5
g1553
ssI807
(dp4262
I83
g3188
sI67
g2627
sI5
g1554
ssI808
(dp4263
I67
g2628
ssI809
(dp4264
I67
g2629
ssI810
(dp4265
I83
g3153
sI67
g2630
sI5
g1555
ssI811
(dp4266
I67
g2631
sI5
g1556
ssI812
(dp4267
I67
g2632
ssI813
(dp4268
I67
g2633
ssI814
(dp4269
I67
g2634
sI5
g1557
ssI815
(dp4270
I67
g2635
ssI816
(dp4271
I83
g3157
sI67
g2636
sI5
g1558
ssI817
(dp4272
I67
g2637
sI5
g1559
sI559
g3997
ssI818
(dp4273
I67
g2638
sI5
g1560
ssI819
(dp4274
I83
g3160
sI67
g2639
sI5
g1561
ssI820
(dp4275
I67
g2640
ssI821
(dp4276
I67
g2641
ssI822
(dp4277
I67
g2642
sI5
g1562
ssI823
(dp4278
I67
g2643
ssI824
(dp4279
I67
g2644
ssI825
(dp4280
I67
g2645
ssI826
(dp4281
I67
g2646
sI5
g1563
ssI827
(dp4282
I67
g2647
ssI828
(dp4283
I83
g3179
sI67
g2648
ssI829
(dp4284
I83
g3162
sI386
g3754
sI67
g2649
sI5
g1564
ssI830
(dp4285
I67
g2650
ssI831
(dp4286
I67
g2651
sI5
g1565
ssI832
(dp4287
I67
g2652
ssI833
(dp4288
I67
g2653
ssI834
(dp4289
I67
g2654
ssI835
(dp4290
I67
g2655
sI5
g1566
ssI836
(dp4291
I67
g2656
ssI837
(dp4292
I67
g2657
ssI838
(dp4293
I67
g2658
ssI839
(dp4294
I67
g2659
ssI840
(dp4295
I67
g2660
ssI841
(dp4296
I67
g2661
ssI842
(dp4297
I67
g2662
sI5
g1567
ssI843
(dp4298
I67
g2663
sI5
g1568
ssI844
(dp4299
I67
g2664
ssI845
(dp4300
I67
g2665
ssI846
(dp4301
I67
g2666
sI5
g1569
ssI847
(dp4302
I67
g2667
ssI848
(dp4303
I67
g2668
sI5
g1570
ssI849
(dp4304
I83
g3169
sI67
g2669
ssI850
(dp4305
I67
g2670
ssI851
(dp4306
I67
g2671
ssI852
(dp4307
I67
g2672
ssI853
(dp4308
I67
g2673
ssI854
(dp4309
I67
g2674
ssI855
(dp4310
I67
g2675
sI5
g1571
ssI856
(dp4311
I67
g2676
sI5
g1572
ssI857
(dp4312
I67
g2677
ssI858
(dp4313
I67
g2678
ssI859
(dp4314
I83
g3171
sI67
g2679
sI5
g1573
sI559
g3998
ssI860
(dp4315
I67
g2680
ssI861
(dp4316
I67
g2681
ssI862
(dp4317
I83
g3014
sI67
g2682
sI5
g1574
ssI863
(dp4318
I83
g3174
sI67
g2683
sI5
g1575
ssI864
(dp4319
I67
g2684
sI5
g1576
ssI865
(dp4320
I5
g1577
ssI866
(dp4321
I386
g3755
sI67
g2685
sI5
g1578
ssI867
(dp4322
I83
g3025
sI67
g2686
sI5
g1579
sI559
g3980
ssI868
(dp4323
I67
g2687
ssI869
(dp4324
I83
g3223
sI67
g2688
sI5
g1580
ssI870
(dp4325
I67
g2689
ssI871
(dp4326
I67
g2690
sI5
g1581
sI559
g4000
ssI872
(dp4327
I608
g4062
sI386
g3756
sI67
g2691
sI5
g1582
sI559
g4001
sI370
g3700
sI83
g3178
sI443
g3838
ssI873
(dp4328
I67
g2692
sI5
g1583
ssI874
(dp4329
I67
g2693
ssI875
(dp4330
I67
g2694
sI5
g1584
ssI876
(dp4331
I83
g3180
sI67
g2695
sI5
g1585
ssI877
(dp4332
I83
g3181
sI67
g2696
sI5
g1586
ssI878
(dp4333
I83
g3182
sI67
g2697
sI5
g1587
ssI879
(dp4334
I83
g3070
sI67
g2698
sI5
g1588
ssI880
(dp4335
I67
g2699
sI5
g1589
ssI881
(dp4336
I83
g3185
sI67
g2700
sI5
g1590
ssI882
(dp4337
I67
g2701
ssI883
(dp4338
I67
g2702
ssI884
(dp4339
I83
g3187
sI67
g2703
sI5
g1591
ssI885
(dp4340
I67
g2704
sI5
g1592
ssI886
(dp4341
I67
g2705
sI5
g1593
ssI887
(dp4342
I67
g2706
ssI888
(dp4343
I83
g3189
sI67
g2707
ssI889
(dp4344
I67
g2708
ssI890
(dp4345
I83
g3191
sI258
g3545
sI67
g2709
sI5
g1594
sI559
g4002
ssI891
(dp4346
I83
g3114
sI67
g2710
sI5
g1595
ssI892
(dp4347
I67
g2711
ssI893
(dp4348
I67
g2712
ssI894
(dp4349
I83
g3115
sI67
g2713
sI5
g1596
ssI895
(dp4350
I67
g2714
ssI896
(dp4351
I5
g1597
ssI897
(dp4352
I83
g3195
sI386
g3757
sI67
g2715
sI559
g4003
ssI898
(dp4353
I83
g3144
sI67
g2716
ssI899
(dp4354
I67
g2717
ssI900
(dp4355
I67
g2718
ssI901
(dp4356
I67
g2719
ssI902
(dp4357
I83
g3199
sI67
g2720
sI5
g1598
ssI903
(dp4358
I67
g2721
ssI904
(dp4359
I67
g2722
sI5
g1599
ssI905
(dp4360
I67
g2723
sI5
g1600
ssI906
(dp4361
I67
g2724
ssI907
(dp4362
I67
g2725
sI5
g1601
sI559
g4004
ssI908
(dp4363
I67
g2726
ssI909
(dp4364
I67
g2727
ssI910
(dp4365
I67
g2728
ssI911
(dp4366
I83
g3201
sI67
g2729
ssI912
(dp4367
I83
g3202
sI67
g2730
sI5
g1602
ssI913
(dp4368
I83
g3203
sI67
g2731
sI5
g1603
ssI914
(dp4369
I67
g2732
ssI915
(dp4370
I67
g2733
ssI916
(dp4371
I67
g2734
ssI917
(dp4372
I67
g2735
sI5
g1604
ssI918
(dp4373
I67
g2736
ssI919
(dp4374
I67
g2737
ssI920
(dp4375
I83
g3206
sI67
g2738
sI5
g1605
sI559
g4005
ssI921
(dp4376
I67
g2739
ssI922
(dp4377
I67
g2740
ssI923
(dp4378
I67
g2741
ssI924
(dp4379
I67
g2742
ssI925
(dp4380
I67
g2743
ssI926
(dp4381
I67
g2744
ssI927
(dp4382
I67
g2745
ssI928
(dp4383
I67
g2746
sI5
g1606
ssI929
(dp4384
I67
g2747
ssI930
(dp4385
I67
g2748
ssI931
(dp4386
I83
g3211
sI67
g2749
sI5
g1607
ssI932
(dp4387
I67
g2750
ssI933
(dp4388
I67
g2751
ssI934
(dp4389
I67
g2752
sI5
g1608
ssI935
(dp4390
I67
g2753
sI5
g1609
ssI936
(dp4391
I67
g2754
ssI937
(dp4392
I67
g2755
sI5
g1610
ssI938
(dp4393
I67
g2756
ssI939
(dp4394
I67
g2757
ssI940
(dp4395
I67
g2758
sI5
g1611
ssI941
(dp4396
I67
g2759
sI5
g1612
ssI942
(dp4397
I386
g3759
sI67
g2760
sI559
g4006
ssI943
(dp4398
I67
g2761
ssI944
(dp4399
I5
g1613
ssI945
(dp4400
I67
g2762
ssI946
(dp4401
I67
g2763
ssI947
(dp4402
I67
g2764
ssI948
(dp4403
I67
g2765
ssI949
(dp4404
I83
g3019
sI67
g2766
sI5
g1614
ssI950
(dp4405
I67
g2767
ssI951
(dp4406
I83
g3221
sI386
g3761
sI67
g2768
sI5
g1615
ssI952
(dp4407
I67
g2769
ssI953
(dp4408
I67
g2770
ssI954
(dp4409
I83
g3032
sI67
g2771
sI5
g1616
ssI955
(dp4410
I67
g2772
ssI956
(dp4411
I67
g2773
ssI957
(dp4412
I67
g2774
sI5
g1617
ssI958
(dp4413
I83
g3226
sI67
g2775
sI5
g1618
ssI959
(dp4414
I83
g3055
sI258
g3539
sI67
g2776
sI386
g3764
sI5
g1619
ssI960
(dp4415
I386
g3765
sI67
g2777
sI5
g1620
ssI961
(dp4416
I67
g2778
sI5
g1621
ssI962
(dp4417
I67
g2779
ssI963
(dp4418
I67
g2780
sI5
g1622
ssI964
(dp4419
I67
g2781
ssI965
(dp4420
I67
g2782
ssI966
(dp4421
I83
g3231
sI5
g1623
ssI967
(dp4422
I67
g2783
sI5
g1624
ssI968
(dp4423
I67
g2784
ssI969
(dp4424
I5
g1625
ssI970
(dp4425
I67
g2785
ssI971
(dp4426
I67
g2786
ssI972
(dp4427
I67
g2787
ssI973
(dp4428
I67
g2788
sI5
g1626
ssI974
(dp4429
I67
g2789
ssI975
(dp4430
I67
g2790
ssI976
(dp4431
I5
g1627
ssI977
(dp4432
I67
g2791
ssI978
(dp4433
I5
g1628
sI559
g4007
ssI979
(dp4434
I67
g2792
ssI980
(dp4435
I67
g2793
ssI981
(dp4436
I67
g2794
ssI982
(dp4437
I67
g2795
ssI983
(dp4438
I67
g2796
ssI984
(dp4439
I67
g2797
sI5
g1629
ssI985
(dp4440
I67
g2798
sI559
g4008
ssI986
(dp4441
I67
g2799
ssI987
(dp4442
I67
g2800
ssI988
(dp4443
I67
g2801
ssI989
(dp4444
I83
g2998
sI67
g2802
sI5
g1630
ssI990
(dp4445
I67
g2803
sI5
g1631
ssI991
(dp4446
I67
g2804
ssI992
(dp4447
I67
g2805
ssI993
(dp4448
I5
g1632
ssI994
(dp4449
I67
g2806
sI5
g1633
ssI995
(dp4450
I67
g2807
ssI996
(dp4451
I67
g2808
sI5
g1634
ssI997
(dp4452
I67
g2809
ssI998
(dp4453
I67
g2810
ssI999
(dp4454
I5
g1635
ssI1000
(dp4455
I67
g2811
ssI1001
(dp4456
I67
g2812
sI5
g1636
ssI1002
(dp4457
I67
g2813
ssI1003
(dp4458
I67
g2814
sI5
g1637
ssI1004
(dp4459
I67
g2815
sI5
g1638
ssI1005
(dp4460
I67
g2816
ssI1006
(dp4461
I83
g3249
sI67
g2817
sI5
g1639
ssI1007
(dp4462
I67
g2818
ssI1008
(dp4463
I67
g2819
ssI1009
(dp4464
I67
g2820
ssI1010
(dp4465
I67
g2821
ssI1011
(dp4466
I83
g3253
sI67
g2822
sI5
g1640
ssI1012
(dp4467
I67
g2823
sI5
g1641
ssI1013
(dp4468
I67
g2824
ssI1014
(dp4469
I5
g1642
ssI1015
(dp4470
I67
g2825
ssI1016
(dp4471
I67
g2826
sI559
g4010
ssI1017
(dp4472
I83
g3255
sI67
g2827
sI5
g1643
ssI1018
(dp4473
I67
g2828
ssI1019
(dp4474
I67
g2829
sI5
g1644
sI559
g4011
ssI1020
(dp4475
I386
g3772
sI67
g2830
sI5
g1645
sI559
g4009
sI370
g3704
sI83
g3247
ssI1021
(dp4476
I67
g2831
ssI1022
(dp4477
I67
g2832
ssI1023
(dp4478
I386
g3773
sI67
g2833
ssI1024
(dp4479
I67
g2834
ssI1025
(dp4480
I67
g2835
ssI1026
(dp4481
I67
g2836
ssI1027
(dp4482
I83
g3000
sI386
g3722
sI67
g2837
sI5
g1646
ssI1028
(dp4483
I67
g2838
ssI1029
(dp4484
I67
g2839
ssI1030
(dp4485
I67
g2840
sI559
g3965
ssI1031
(dp4486
I67
g2841
sI5
g1647
ssI1032
(dp4487
I83
g3184
sI67
g2842
ssI1033
(dp4488
I67
g2843
ssI1034
(dp4489
I67
g2844
ssI1035
(dp4490
I83
g3159
sI386
g3724
sI67
g2845
sI5
g1648
ssI1036
(dp4491
I67
g2846
sI5
g1649
ssI1037
(dp4492
I67
g2847
ssI1038
(dp4493
I67
g2848
ssI1039
(dp4494
I67
g2849
ssI1040
(dp4495
I67
g2850
ssI1041
(dp4496
I67
g2851
ssI1042
(dp4497
I67
g2852
sI5
g1650
ssI1043
(dp4498
I83
g3049
sI67
g2853
ssI1044
(dp4499
I67
g2854
ssI1045
(dp4500
I67
g2855
ssI1046
(dp4501
I83
g3002
sI67
g2856
ssI1047
(dp4502
I67
g2857
sI5
g1651
ssI1048
(dp4503
I83
g3004
sI67
g2858
ssI1049
(dp4504
I67
g2859
ssI1050
(dp4505
I83
g3005
ssI1051
(dp4506
I67
g2860
ssI1052
(dp4507
I67
g2861
sI5
g1652
ssI1053
(dp4508
I67
g2862
ssI1054
(dp4509
I67
g2863
ssI1055
(dp4510
I67
g2864
ssI1056
(dp4511
I67
g2865
ssI1057
(dp4512
I67
g2866
ssI1058
(dp4513
I83
g3168
sI386
g3725
sI67
g2867
sI5
g1653
ssI1059
(dp4514
I67
g2868
ssI1060
(dp4515
I67
g2869
ssI1061
(dp4516
I67
g2870
ssI1062
(dp4517
I67
g2871
ssI1063
(dp4518
I67
g2872
sI5
g1654
ssI1064
(dp4519
I67
g2873
sI5
g1655
ssI1065
(dp4520
I67
g2874
ssI1066
(dp4521
I67
g2875
ssI1067
(dp4522
I67
g2876
ssI1068
(dp4523
I67
g2877
ssI1069
(dp4524
I67
g2878
sI5
g1656
ssI1070
(dp4525
I67
g2879
sI5
g1657
ssI1071
(dp4526
I67
g2880
sI5
g1658
ssI1072
(dp4527
I67
g2881
ssI1073
(dp4528
I67
g2882
ssI1074
(dp4529
I67
g2883
ssI1075
(dp4530
I67
g2884
ssI1076
(dp4531
I67
g2885
sI5
g1659
ssI1077
(dp4532
I67
g2886
ssI1078
(dp4533
I67
g2887
ssI1079
(dp4534
I67
g2888
sI5
g1660
ssI1080
(dp4535
I67
g2889
ssI1081
(dp4536
I67
g2890
sI5
g1661
ssI1082
(dp4537
I67
g2891
sI5
g1662
ssI1083
(dp4538
I67
g2892
ssI1084
(dp4539
I83
g3248
sI67
g2893
sI5
g1663
ssI1085
(dp4540
I67
g2894
ssI1086
(dp4541
I67
g2895
ssI1087
(dp4542
I67
g2896
ssI1088
(dp4543
I386
g3728
sI67
g2897
sI5
g1664
sI559
g3970
ssI1089
(dp4544
I67
g2898
ssI1090
(dp4545
I67
g2899
sI5
g1665
ssI1091
(dp4546
I83
g3204
sI67
g2900
sI5
g1666
ssI1092
(dp4547
I67
g2901
ssI1093
(dp4548
I67
g2902
ssI1094
(dp4549
I67
g2903
ssI1095
(dp4550
I67
g2904
ssI1096
(dp4551
I67
g2905
ssI1097
(dp4552
I67
g2906
ssI1098
(dp4553
I83
g3020
sI67
g2907
ssI1099
(dp4554
I67
g2908
ssI1100
(dp4555
I67
g2909
sI5
g1667
ssI1101
(dp4556
I67
g2910
sI5
g1668
ssI1102
(dp4557
I67
g2911
ssI1103
(dp4558
I67
g2912
ssI1104
(dp4559
I67
g2913
ssI1105
(dp4560
I67
g2914
ssI1106
(dp4561
I67
g2915
ssI1107
(dp4562
I386
g3730
sI67
g2916
sI5
g1669
ssI1108
(dp4563
I67
g2917
ssI1109
(dp4564
I67
g2918
sI5
g1670
ssI1110
(dp4565
I67
g2919
sI5
g1671
ssI1111
(dp4566
I67
g2920
sI5
g1672
ssI1112
(dp4567
I67
g2921
ssI1113
(dp4568
I67
g2922
ssI1114
(dp4569
I67
g2923
sI5
g1673
ssI1115
(dp4570
I83
g3030
sI67
g2924
ssI1116
(dp4571
I67
g2925
ssI1117
(dp4572
I67
g2926
ssI1118
(dp4573
I67
g2927
sI5
g1674
ssI1119
(dp4574
I67
g2928
ssI1120
(dp4575
I67
g2929
sI5
g1675
sI559
g3971
ssI1121
(dp4576
I67
g2930
ssI1122
(dp4577
I67
g2931
sI5
g1676
ssI1123
(dp4578
I67
g2932
ssI1124
(dp4579
I67
g2933
sI5
g1677
ssI1125
(dp4580
I67
g2934
ssI1126
(dp4581
I67
g2935
sI559
g3966
ssI1127
(dp4582
I83
g3016
sI67
g2936
sI5
g1678
ssI1128
(dp4583
I83
g3040
sI67
g2937
sI5
g1679
ssI1129
(dp4584
I67
g2938
ssI1130
(dp4585
I67
g2939
ssI1131
(dp4586
I67
g2940
ssI1132
(dp4587
I67
g2941
sI5
g1680
ssI1133
(dp4588
I67
g2942
ssI1134
(dp4589
I83
g3045
sI67
g2943
sI5
g1681
sI559
g3976
ssI1135
(dp4590
I83
g3046
sI67
g2944
sI5
g1682
ssI1136
(dp4591
I67
g2945
ssI1137
(dp4592
I83
g3177
sI67
g2946
ssI1138
(dp4593
I67
g2947
ssI1139
(dp4594
I67
g2948
ssI1140
(dp4595
I67
g2949
sI5
g1683
ssI1141
(dp4596
I67
g2950
sI5
g1684
ssI1142
(dp4597
I67
g2951
ssI1143
(dp4598
I67
g2952
ssI1144
(dp4599
I67
g2953
ssI1145
(dp4600
I67
g2954
ssI1146
(dp4601
I67
g2955
ssI1147
(dp4602
I67
g2956
ssI1148
(dp4603
I67
g2957
ssI1149
(dp4604
I67
g2958
ssI1150
(dp4605
I67
g2959
ssI1151
(dp4606
I5
g1685
sssS'adj'
p4607
g1163
sb.